"File: UC_F5660_main.c  Assembler  Version HGASM0202      Page 1


   1  0000              ; Generated by holtek-gcc v3.20, Tue Oct 20 21:41:37 2020
   2  0000              ; 
   3  0000              ; Configuration:
   4  0000              ;       with long instruction
   5  0000              ;       Multi-ROM, Multi-RAM
   6  0000              ;       bits_per_rom_unit:16
   7  0000              ;       with mp1
   8  0000              ;       with tbhp, address(0x9)
   9  0000              ;          Use tabrd-const
  10  0000              ;       
  11  0000              ; SFR address of long-instruction arch:
  12  0000              ;    mp0 = -1,1,0
  13  0000              ;    mp1 = 4,3,2
  14  0000              ;    mp2 = 14,13,12
  15  0000              ;    tbp = 9,7,8
  16  0000              ;    acc = 5
  17  0000              ;    pcl = 6
  18  0000              ;    status = 10
  19  0000              ;    bp = 11
  20  0000              ;    intc = 16
  21  0000              ;       
  22  0000              ;       
  23  0000              ; use 'tabrdc' instead of 'tabrd'
  24  0000              ;       
  25  0000              
  26  0000              #pragma translator "holtek-gcc 4.6.4" "3.20" "build 20130711"
  27  0000              ; Rebuild 610
  28  0000              
  29  0000              ir equ [2]
  30  0000              mp equ [3]
  31  0000              sbp equ [4]
  32  0000              acc equ [5]
  33  0000              bp equ [11]
  34  0000              tblp equ [7]
  35  0000              tbhp equ [9]
  36  0000              status equ [10]
  37  0000              c equ [10].0
  38  0000              ac equ [10].1
  39  0000              z equ [10].2
  40  0000              ov equ [10].3
  41  0000              cz equ [10].6
  42  0000              sc equ [10].7
  43  0000              intc equ [16]
  44  0000              
  45  0000              extern ra:byte
  46  0000              extern rb:byte
  47  0000              extern rc:byte
  48  0000              extern rd:byte
  49  0000              extern re:byte
  50  0000              extern rf:byte
  51  0000              extern rg:byte
  52  0000              extern rh:byte
  53  0000              extern _Crom2Prom:near
  54  0000              extern _Crom2PromNext:near
  55  0000              
  56  0000              RAMBANK 0 @BITDATASEC, @BITDATASEC1
  57  0000              @HCCINIT	.section 'data'
  58  0000              @HCCINIT0	.section 'data'
  59  0000              @BITDATASEC	 .section 'data'
"File: UC_F5660_main.ASM  Assembler  Version HGASM0202      Page 2

  60  0000              @BITDATASEC1	 .section 'data'
  61  0000              
  62  0000              #pragma debug scope 1 1
  63  0000              	extern __DELAY3:near
  64  0000              	extern __DELAYX3:near
  65  0000              	extern __DELAYX6:near
  66  0000              	extern __DELAYY5:near
  67  0000              	extern __DELAYY3:near
  68  0000              	extern _builtin_holtek_delay_2:byte
  69  0000              public _LED_COM5_TUR_ON
  70  0000              #pragma debug scope 2 1

  67  0000              #line 67 "C:\HT-3000\UC_F5660\UC_F5660_main.c"
  67  0000              _LED_COM5_TUR_ON .section 'code'
  67  0000              _LED_COM5_TUR_ON proc
  68  0000              #line 68 "C:\HT-3000\UC_F5660\UC_F5660_main.c"
  68  0000  0F05        	mov a,5
  68  0001  0080     R  	mov _CheckAddressCnt[0],a
  68  0002              _L2:
  69  0002              #line 69 "C:\HT-3000\UC_F5660\UC_F5660_main.c"
  69  0002  1E00     R  	snz _CheckAddressCnt[0]
  69  0003  2800     R  	jmp _L1
  71  0004              #line 71 "C:\HT-3000\UC_F5660\UC_F5660_main.c"
  71  0004              	fcall _i2c_start
  72  000B              #line 72 "C:\HT-3000\UC_F5660\UC_F5660_main.c"
  72  000B  0FE0        	mov a,224
  72  000C              	fcall _i2c_write
  73  0013              #line 73 "C:\HT-3000\UC_F5660\UC_F5660_main.c"
  73  0013              	fcall _i2c_read_ACK
  73  001A  0080     E  	mov ra,a
  73  001B  1080     E  	sz ra
  73  001C  2800     R  	jmp _L3
  75  001D              #line 75 "C:\HT-3000\UC_F5660\UC_F5660_main.c"
  75  001D  0F0A        	mov a,10
  75  001E              	fcall _i2c_write
  76  0025              #line 76 "C:\HT-3000\UC_F5660\UC_F5660_main.c"
  76  0025              	fcall _i2c_read_ACK
  76  002C  0080     E  	mov ra,a
  76  002D  1080     E  	sz ra
  76  002E  2800     R  	jmp _L3
  78  002F              #line 78 "C:\HT-3000\UC_F5660\UC_F5660_main.c"
  78  002F  0700     R  	mov a,_display_Buffer[10]
  78  0030  0080     E  	mov rb,a
  78  0031  0700     R  	mov a,_display_Buffer[11]
  78  0032  0080     E  	mov rc,a
  78  0033  0700     E  	mov a,rc
  78  0034  0080     E  	mov rb,a
  78  0035  1F00     E  	clr rc
  78  0036  0700     E  	mov a,rb
  78  0037              	fcall _i2c_write
  79  003E              #line 79 "C:\HT-3000\UC_F5660\UC_F5660_main.c"
  79  003E              	fcall _i2c_read_ACK
  79  0045  0080     E  	mov ra,a
  79  0046  1080     E  	sz ra
  79  0047  2800     R  	jmp _L5
  81  0048              #line 81 "C:\HT-3000\UC_F5660\UC_F5660_main.c"
  81  0048  0700     R  	mov a,_display_Buffer[10]
  81  0049              	fcall _i2c_write
  82  0050              #line 82 "C:\HT-3000\UC_F5660\UC_F5660_main.c"
  82  0050              	fcall _i2c_read_ACK
"File: UC_F5660_main.c  Assembler  Version HGASM0202      Page 3

  82  0057  0080     E  	mov ra,a
  82  0058  1080     E  	sz ra
  82  0059  2800     R  	jmp _L5
  85  005A              #line 85 "C:\HT-3000\UC_F5660\UC_F5660_main.c"
  85  005A              	fcall _i2c_stop
  86  0061              #line 86 "C:\HT-3000\UC_F5660\UC_F5660_main.c"
  86  0061  2800     R  	jmp _L1
  86  0062              _L5:
  96  0062              #line 96 "C:\HT-3000\UC_F5660\UC_F5660_main.c"
  96  0062              	fcall _i2c_stop
  97  0069              #line 97 "C:\HT-3000\UC_F5660\UC_F5660_main.c"
  97  0069              ;# 97 "C:\HT-3000\UC_F5660\UC_F5660_main.c" 1
  97  0069              	IF 10>263690
  97  0069              ;# 97 "C:\HT-3000\UC_F5660\UC_F5660_main.c" 1
  97  0069              	ERRMESSAGE 'the value 10of the argument exceeds the maxinum 263690'
  97  0069              	ENDIF
  97  0069              ;# 97 "C:\HT-3000\UC_F5660\UC_F5660_main.c" 1
  97  0069              	IF 10<0
  97  0069              ;# 97 "C:\HT-3000\UC_F5660\UC_F5660_main.c" 1
  97  0069              	ERRMESSAGE 'the value 10 of the argument exceeds the mininum 0'
  97  0069              	ENDIF
  97  0069              ;# 97 "C:\HT-3000\UC_F5660\UC_F5660_main.c" 1
  97  0069              	IF 10==0
  97  0069              ;# 97 "C:\HT-3000\UC_F5660\UC_F5660_main.c" 1
  97  0069              	JMP $
  97  0069              	ENDIF
  97  0069              ;# 97 "C:\HT-3000\UC_F5660\UC_F5660_main.c" 1
  97  0069              	IF (10>=1) AND (10<( 4 + __PBP__ * 2))
  97  0069              ;# 97 "C:\HT-3000\UC_F5660\UC_F5660_main.c" 1
  97  0069              	NOP
  97  0069              	ENDIF
  97  0069              ;# 97 "C:\HT-3000\UC_F5660\UC_F5660_main.c" 1
  97  0069              	IF (10>=2) AND (10<( 4 + __PBP__ * 2))
  97  0069              ;# 97 "C:\HT-3000\UC_F5660\UC_F5660_main.c" 1
  97  0069              	NOP
  97  0069              	ENDIF
  97  0069              ;# 97 "C:\HT-3000\UC_F5660\UC_F5660_main.c" 1
  97  0069              	IF (10>=3) AND (10<( 4 + __PBP__ * 2))
  97  0069              ;# 97 "C:\HT-3000\UC_F5660\UC_F5660_main.c" 1
  97  0069              	NOP
  97  0069              	ENDIF
  97  0069              ;# 97 "C:\HT-3000\UC_F5660\UC_F5660_main.c" 1
  97  0069              	IF (10>=4) AND (10<( 4 + __PBP__ * 2)) AND ( __PBP__ > 0 )
  97  0069              ;# 97 "C:\HT-3000\UC_F5660\UC_F5660_main.c" 1
  97  0069              	NOP
  97  0069              	ENDIF
  97  0069              ;# 97 "C:\HT-3000\UC_F5660\UC_F5660_main.c" 1
  97  0069              	IF (10>=5) AND (10<( 4 + __PBP__ * 2)) AND ( __PBP__ > 0 )
  97  0069              ;# 97 "C:\HT-3000\UC_F5660\UC_F5660_main.c" 1
  97  0069              	NOP
  97  0069              	ENDIF
  97  0069              ;# 97 "C:\HT-3000\UC_F5660\UC_F5660_main.c" 1
  97  0069              	IF (10>=6) AND (10<( 4 + __PBP__ * 2))  AND ( __PBP__ > 1 )
  97  0069              ;# 97 "C:\HT-3000\UC_F5660\UC_F5660_main.c" 1
  97  0069              	NOP
  97  0069              	ENDIF
  97  0069              ;# 97 "C:\HT-3000\UC_F5660\UC_F5660_main.c" 1
  97  0069              	IF (10>=7) AND (10<( 4 + __PBP__ * 2))  AND ( __PBP__ > 1 )
  97  0069              ;# 97 "C:\HT-3000\UC_F5660\UC_F5660_main.c" 1
  97  0069              	NOP
"File: UC_F5660_main.c  Assembler  Version HGASM0202      Page 4

  97  0069              	ENDIF
  97  0069              ;# 97 "C:\HT-3000\UC_F5660\UC_F5660_main.c" 1
  97  0069              	IF (10>=8) AND (10<( 4 + __PBP__ * 2))  AND ( __PBP__ > 2 )
  97  0069              ;# 97 "C:\HT-3000\UC_F5660\UC_F5660_main.c" 1
  97  0069              	NOP
  97  0069              	ENDIF
  97  0069              ;# 97 "C:\HT-3000\UC_F5660\UC_F5660_main.c" 1
  97  0069              	IF (10==9)  AND ( __PBP__ > 2 )
  97  0069              ;# 97 "C:\HT-3000\UC_F5660\UC_F5660_main.c" 1
  97  0069              	NOP
  97  0069              	ENDIF
  97  0069              ;# 97 "C:\HT-3000\UC_F5660\UC_F5660_main.c" 1
  97  0069              	IF (10< ( 8 + __PBP__ * 2)) AND (10>( 3 + __PBP__ * 2))
  97  0069              ;# 97 "C:\HT-3000\UC_F5660\UC_F5660_main.c" 1
  97  0069              	fcall __DELAY3 + ( 7 + __PBP__ * 2) -10
  97  0069              	ENDIF
  97  0069              ;# 97 "C:\HT-3000\UC_F5660\UC_F5660_main.c" 1
  97  0069              	IF (10< ( 0404h + __PBP__ * 2)) AND (10>( 7 + __PBP__ * 2))
  97  0069              ;# 97 "C:\HT-3000\UC_F5660\UC_F5660_main.c" 1
  97  0069  0F01        	MOV A,(10-( 4 + __PBP__ * 2))/4
  97  006A              ;# 97 "C:\HT-3000\UC_F5660\UC_F5660_main.c" 1
  97  006A              	fcall __DELAYX3 + 3 -((10-( 4 + __PBP__ * 2)) MOD 4) 
  97  0071              	ENDIF
  97  0071              ;# 97 "C:\HT-3000\UC_F5660\UC_F5660_main.c" 1
  97  0071              	IF (10< ( 040bh + __PBP__ * 2)) AND (10> ( 0403h + __PBP__ * 2))
  97  0071              ;# 97 "C:\HT-3000\UC_F5660\UC_F5660_main.c" 1
  97  0071              	MOV A,0 
  97  0071              ;# 97 "C:\HT-3000\UC_F5660\UC_F5660_main.c" 1
  97  0071              	fcall __DELAYX6 + ( 040ah + __PBP__ * 2) -10
  97  0071              	ENDIF
  97  0071              ;# 97 "C:\HT-3000\UC_F5660\UC_F5660_main.c" 1
  97  0071              	IF (10 >= ( 040bh + __PBP__ * 2)) AND ((((10-( 9 + __PBP__ * 2))%0402h)/4+1)>256)
  97  0071              ;# 97 "C:\HT-3000\UC_F5660\UC_F5660_main.c" 1
  97  0071              	MOV A,(10-( 9 + __PBP__ * 2))/0402h
  97  0071              ;# 97 "C:\HT-3000\UC_F5660\UC_F5660_main.c" 1
  97  0071              	MOV _builtin_holtek_delay_2,A
  97  0071              ;# 97 "C:\HT-3000\UC_F5660\UC_F5660_main.c" 1
  97  0071              	MOV A,0
  97  0071              ;# 97 "C:\HT-3000\UC_F5660\UC_F5660_main.c" 1
  97  0071              	fcall __DELAYY5 +5- (((10-( 9 + __PBP__ * 2))%0402h)%6) 
  97  0071              	ENDIF
  97  0071              ;# 97 "C:\HT-3000\UC_F5660\UC_F5660_main.c" 1
  97  0071              	IF (10 >= ( 040bh + __PBP__ * 2)) AND ((((10-( 9 + __PBP__ * 2))%0402h)/4+1)<=256)
  97  0071              ;# 97 "C:\HT-3000\UC_F5660\UC_F5660_main.c" 1
  97  0071              	MOV A,(10-( 9 + __PBP__ * 2))/0402h
  97  0071              ;# 97 "C:\HT-3000\UC_F5660\UC_F5660_main.c" 1
  97  0071              	MOV _builtin_holtek_delay_2,A
  97  0071              ;# 97 "C:\HT-3000\UC_F5660\UC_F5660_main.c" 1
  97  0071              	MOV A,((10-( 9 + __PBP__ * 2))%0402h)/4+1
  97  0071              ;# 97 "C:\HT-3000\UC_F5660\UC_F5660_main.c" 1
  97  0071              	fcall __DELAYY3 +3-(((10-( 9 + __PBP__ * 2))%0402h)%4) 
  97  0071              	ENDIF
  98  0071              #line 98 "C:\HT-3000\UC_F5660\UC_F5660_main.c"
  98  0071  1580     R  	dec _CheckAddressCnt[0]
  99  0072              #line 99 "C:\HT-3000\UC_F5660\UC_F5660_main.c"
  99  0072  2800     R  	jmp _L1
  99  0073              _L3:
 109  0073              #line 109 "C:\HT-3000\UC_F5660\UC_F5660_main.c"
 109  0073              	fcall _i2c_stop
 110  007A              #line 110 "C:\HT-3000\UC_F5660\UC_F5660_main.c"
"File: UC_F5660_main.c  Assembler  Version HGASM0202      Page 5

 110  007A              ;# 110 "C:\HT-3000\UC_F5660\UC_F5660_main.c" 1
 110  007A              	IF 10>263690
 110  007A              ;# 110 "C:\HT-3000\UC_F5660\UC_F5660_main.c" 1
 110  007A              	ERRMESSAGE 'the value 10of the argument exceeds the maxinum 263690'
 110  007A              	ENDIF
 110  007A              ;# 110 "C:\HT-3000\UC_F5660\UC_F5660_main.c" 1
 110  007A              	IF 10<0
 110  007A              ;# 110 "C:\HT-3000\UC_F5660\UC_F5660_main.c" 1
 110  007A              	ERRMESSAGE 'the value 10 of the argument exceeds the mininum 0'
 110  007A              	ENDIF
 110  007A              ;# 110 "C:\HT-3000\UC_F5660\UC_F5660_main.c" 1
 110  007A              	IF 10==0
 110  007A              ;# 110 "C:\HT-3000\UC_F5660\UC_F5660_main.c" 1
 110  007A              	JMP $
 110  007A              	ENDIF
 110  007A              ;# 110 "C:\HT-3000\UC_F5660\UC_F5660_main.c" 1
 110  007A              	IF (10>=1) AND (10<( 4 + __PBP__ * 2))
 110  007A              ;# 110 "C:\HT-3000\UC_F5660\UC_F5660_main.c" 1
 110  007A              	NOP
 110  007A              	ENDIF
 110  007A              ;# 110 "C:\HT-3000\UC_F5660\UC_F5660_main.c" 1
 110  007A              	IF (10>=2) AND (10<( 4 + __PBP__ * 2))
 110  007A              ;# 110 "C:\HT-3000\UC_F5660\UC_F5660_main.c" 1
 110  007A              	NOP
 110  007A              	ENDIF
 110  007A              ;# 110 "C:\HT-3000\UC_F5660\UC_F5660_main.c" 1
 110  007A              	IF (10>=3) AND (10<( 4 + __PBP__ * 2))
 110  007A              ;# 110 "C:\HT-3000\UC_F5660\UC_F5660_main.c" 1
 110  007A              	NOP
 110  007A              	ENDIF
 110  007A              ;# 110 "C:\HT-3000\UC_F5660\UC_F5660_main.c" 1
 110  007A              	IF (10>=4) AND (10<( 4 + __PBP__ * 2)) AND ( __PBP__ > 0 )
 110  007A              ;# 110 "C:\HT-3000\UC_F5660\UC_F5660_main.c" 1
 110  007A              	NOP
 110  007A              	ENDIF
 110  007A              ;# 110 "C:\HT-3000\UC_F5660\UC_F5660_main.c" 1
 110  007A              	IF (10>=5) AND (10<( 4 + __PBP__ * 2)) AND ( __PBP__ > 0 )
 110  007A              ;# 110 "C:\HT-3000\UC_F5660\UC_F5660_main.c" 1
 110  007A              	NOP
 110  007A              	ENDIF
 110  007A              ;# 110 "C:\HT-3000\UC_F5660\UC_F5660_main.c" 1
 110  007A              	IF (10>=6) AND (10<( 4 + __PBP__ * 2))  AND ( __PBP__ > 1 )
 110  007A              ;# 110 "C:\HT-3000\UC_F5660\UC_F5660_main.c" 1
 110  007A              	NOP
 110  007A              	ENDIF
 110  007A              ;# 110 "C:\HT-3000\UC_F5660\UC_F5660_main.c" 1
 110  007A              	IF (10>=7) AND (10<( 4 + __PBP__ * 2))  AND ( __PBP__ > 1 )
 110  007A              ;# 110 "C:\HT-3000\UC_F5660\UC_F5660_main.c" 1
 110  007A              	NOP
 110  007A              	ENDIF
 110  007A              ;# 110 "C:\HT-3000\UC_F5660\UC_F5660_main.c" 1
 110  007A              	IF (10>=8) AND (10<( 4 + __PBP__ * 2))  AND ( __PBP__ > 2 )
 110  007A              ;# 110 "C:\HT-3000\UC_F5660\UC_F5660_main.c" 1
 110  007A              	NOP
 110  007A              	ENDIF
 110  007A              ;# 110 "C:\HT-3000\UC_F5660\UC_F5660_main.c" 1
 110  007A              	IF (10==9)  AND ( __PBP__ > 2 )
 110  007A              ;# 110 "C:\HT-3000\UC_F5660\UC_F5660_main.c" 1
 110  007A              	NOP
 110  007A              	ENDIF
"File: UC_F5660_main.c  Assembler  Version HGASM0202      Page 6

 110  007A              ;# 110 "C:\HT-3000\UC_F5660\UC_F5660_main.c" 1
 110  007A              	IF (10< ( 8 + __PBP__ * 2)) AND (10>( 3 + __PBP__ * 2))
 110  007A              ;# 110 "C:\HT-3000\UC_F5660\UC_F5660_main.c" 1
 110  007A              	fcall __DELAY3 + ( 7 + __PBP__ * 2) -10
 110  007A              	ENDIF
 110  007A              ;# 110 "C:\HT-3000\UC_F5660\UC_F5660_main.c" 1
 110  007A              	IF (10< ( 0404h + __PBP__ * 2)) AND (10>( 7 + __PBP__ * 2))
 110  007A              ;# 110 "C:\HT-3000\UC_F5660\UC_F5660_main.c" 1
 110  007A  0F01        	MOV A,(10-( 4 + __PBP__ * 2))/4
 110  007B              ;# 110 "C:\HT-3000\UC_F5660\UC_F5660_main.c" 1
 110  007B              	fcall __DELAYX3 + 3 -((10-( 4 + __PBP__ * 2)) MOD 4) 
 110  0082              	ENDIF
 110  0082              ;# 110 "C:\HT-3000\UC_F5660\UC_F5660_main.c" 1
 110  0082              	IF (10< ( 040bh + __PBP__ * 2)) AND (10> ( 0403h + __PBP__ * 2))
 110  0082              ;# 110 "C:\HT-3000\UC_F5660\UC_F5660_main.c" 1
 110  0082              	MOV A,0 
 110  0082              ;# 110 "C:\HT-3000\UC_F5660\UC_F5660_main.c" 1
 110  0082              	fcall __DELAYX6 + ( 040ah + __PBP__ * 2) -10
 110  0082              	ENDIF
 110  0082              ;# 110 "C:\HT-3000\UC_F5660\UC_F5660_main.c" 1
 110  0082              	IF (10 >= ( 040bh + __PBP__ * 2)) AND ((((10-( 9 + __PBP__ * 2))%0402h)/4+1)>256)
 110  0082              ;# 110 "C:\HT-3000\UC_F5660\UC_F5660_main.c" 1
 110  0082              	MOV A,(10-( 9 + __PBP__ * 2))/0402h
 110  0082              ;# 110 "C:\HT-3000\UC_F5660\UC_F5660_main.c" 1
 110  0082              	MOV _builtin_holtek_delay_2,A
 110  0082              ;# 110 "C:\HT-3000\UC_F5660\UC_F5660_main.c" 1
 110  0082              	MOV A,0
 110  0082              ;# 110 "C:\HT-3000\UC_F5660\UC_F5660_main.c" 1
 110  0082              	fcall __DELAYY5 +5- (((10-( 9 + __PBP__ * 2))%0402h)%6) 
 110  0082              	ENDIF
 110  0082              ;# 110 "C:\HT-3000\UC_F5660\UC_F5660_main.c" 1
 110  0082              	IF (10 >= ( 040bh + __PBP__ * 2)) AND ((((10-( 9 + __PBP__ * 2))%0402h)/4+1)<=256)
 110  0082              ;# 110 "C:\HT-3000\UC_F5660\UC_F5660_main.c" 1
 110  0082              	MOV A,(10-( 9 + __PBP__ * 2))/0402h
 110  0082              ;# 110 "C:\HT-3000\UC_F5660\UC_F5660_main.c" 1
 110  0082              	MOV _builtin_holtek_delay_2,A
 110  0082              ;# 110 "C:\HT-3000\UC_F5660\UC_F5660_main.c" 1
 110  0082              	MOV A,((10-( 9 + __PBP__ * 2))%0402h)/4+1
 110  0082              ;# 110 "C:\HT-3000\UC_F5660\UC_F5660_main.c" 1
 110  0082              	fcall __DELAYY3 +3-(((10-( 9 + __PBP__ * 2))%0402h)%4) 
 110  0082              	ENDIF
 111  0082              #line 111 "C:\HT-3000\UC_F5660\UC_F5660_main.c"
 111  0082  1580     R  	dec _CheckAddressCnt[0]
 112  0083              #line 112 "C:\HT-3000\UC_F5660\UC_F5660_main.c"
 112  0083  2800     R  	jmp _L2
 112  0084              _L1:
 112  0084  0003        	ret
 112  0085              _LED_COM5_TUR_ON endp
 112  0085              #line 112 "C:\HT-3000\UC_F5660\UC_F5660_main.c"
 112  0085              #pragma debug scope 1 1
 112  0085              public _init_HT16K33
 112  0085              #pragma debug scope 3 1
 121  0085              #line 121 "C:\HT-3000\UC_F5660\UC_F5660_main.c"
 121  0000              _init_HT16K33 .section 'code'
 121  0000              _init_HT16K33 proc
 121  0000  00              local _init_HT16K33_2 db 1 dup(?)	; 0,1
 122  0001              #line 122 "C:\HT-3000\UC_F5660\UC_F5660_main.c"
 122  0000              	fcall _i2c_init
 122  0007  0F04        	mov a,4
 122  0008  0080     R  	mov _init_HT16K33_2[0],a
"File: UC_F5660_main.c  Assembler  Version HGASM0202      Page 7

 122  0009              _L16:
 129  0009              #line 129 "C:\HT-3000\UC_F5660\UC_F5660_main.c"
 129  0009              	fcall _i2c_start
 130  0010              #line 130 "C:\HT-3000\UC_F5660\UC_F5660_main.c"
 130  0010  0FE0        	mov a,224
 130  0011              	fcall _i2c_write
 131  0018              #line 131 "C:\HT-3000\UC_F5660\UC_F5660_main.c"
 131  0018              	fcall _i2c_read_ACK
 131  001F  0080     E  	mov ra,a
 131  0020  1080     E  	sz ra
 131  0021  2800     R  	jmp _L12
 134  0022              #line 134 "C:\HT-3000\UC_F5660\UC_F5660_main.c"
 134  0022  0F21        	mov a,33
 134  0023              	fcall _i2c_write
 135  002A              #line 135 "C:\HT-3000\UC_F5660\UC_F5660_main.c"
 135  002A              	fcall _i2c_read_ACK
 135  0031  0080     E  	mov ra,a
 135  0032  1080     E  	sz ra
 135  0033  2800     R  	jmp _L12
 137  0034              #line 137 "C:\HT-3000\UC_F5660\UC_F5660_main.c"
 137  0034              	fcall _i2c_stop
 138  003B              #line 138 "C:\HT-3000\UC_F5660\UC_F5660_main.c"
 138  003B  2800     R  	jmp _L14
 138  003C              _L12:
 146  003C              #line 146 "C:\HT-3000\UC_F5660\UC_F5660_main.c"
 146  003C              	fcall _i2c_stop
 147  0043              #line 147 "C:\HT-3000\UC_F5660\UC_F5660_main.c"
 147  0043              ;# 147 "C:\HT-3000\UC_F5660\UC_F5660_main.c" 1
 147  0043              	IF 10>263690
 147  0043              ;# 147 "C:\HT-3000\UC_F5660\UC_F5660_main.c" 1
 147  0043              	ERRMESSAGE 'the value 10of the argument exceeds the maxinum 263690'
 147  0043              	ENDIF
 147  0043              ;# 147 "C:\HT-3000\UC_F5660\UC_F5660_main.c" 1
 147  0043              	IF 10<0
 147  0043              ;# 147 "C:\HT-3000\UC_F5660\UC_F5660_main.c" 1
 147  0043              	ERRMESSAGE 'the value 10 of the argument exceeds the mininum 0'
 147  0043              	ENDIF
 147  0043              ;# 147 "C:\HT-3000\UC_F5660\UC_F5660_main.c" 1
 147  0043              	IF 10==0
 147  0043              ;# 147 "C:\HT-3000\UC_F5660\UC_F5660_main.c" 1
 147  0043              	JMP $
 147  0043              	ENDIF
 147  0043              ;# 147 "C:\HT-3000\UC_F5660\UC_F5660_main.c" 1
 147  0043              	IF (10>=1) AND (10<( 4 + __PBP__ * 2))
 147  0043              ;# 147 "C:\HT-3000\UC_F5660\UC_F5660_main.c" 1
 147  0043              	NOP
 147  0043              	ENDIF
 147  0043              ;# 147 "C:\HT-3000\UC_F5660\UC_F5660_main.c" 1
 147  0043              	IF (10>=2) AND (10<( 4 + __PBP__ * 2))
 147  0043              ;# 147 "C:\HT-3000\UC_F5660\UC_F5660_main.c" 1
 147  0043              	NOP
 147  0043              	ENDIF
 147  0043              ;# 147 "C:\HT-3000\UC_F5660\UC_F5660_main.c" 1
 147  0043              	IF (10>=3) AND (10<( 4 + __PBP__ * 2))
 147  0043              ;# 147 "C:\HT-3000\UC_F5660\UC_F5660_main.c" 1
 147  0043              	NOP
 147  0043              	ENDIF
 147  0043              ;# 147 "C:\HT-3000\UC_F5660\UC_F5660_main.c" 1
 147  0043              	IF (10>=4) AND (10<( 4 + __PBP__ * 2)) AND ( __PBP__ > 0 )
 147  0043              ;# 147 "C:\HT-3000\UC_F5660\UC_F5660_main.c" 1
"File: UC_F5660_main.c  Assembler  Version HGASM0202      Page 8

 147  0043              	NOP
 147  0043              	ENDIF
 147  0043              ;# 147 "C:\HT-3000\UC_F5660\UC_F5660_main.c" 1
 147  0043              	IF (10>=5) AND (10<( 4 + __PBP__ * 2)) AND ( __PBP__ > 0 )
 147  0043              ;# 147 "C:\HT-3000\UC_F5660\UC_F5660_main.c" 1
 147  0043              	NOP
 147  0043              	ENDIF
 147  0043              ;# 147 "C:\HT-3000\UC_F5660\UC_F5660_main.c" 1
 147  0043              	IF (10>=6) AND (10<( 4 + __PBP__ * 2))  AND ( __PBP__ > 1 )
 147  0043              ;# 147 "C:\HT-3000\UC_F5660\UC_F5660_main.c" 1
 147  0043              	NOP
 147  0043              	ENDIF
 147  0043              ;# 147 "C:\HT-3000\UC_F5660\UC_F5660_main.c" 1
 147  0043              	IF (10>=7) AND (10<( 4 + __PBP__ * 2))  AND ( __PBP__ > 1 )
 147  0043              ;# 147 "C:\HT-3000\UC_F5660\UC_F5660_main.c" 1
 147  0043              	NOP
 147  0043              	ENDIF
 147  0043              ;# 147 "C:\HT-3000\UC_F5660\UC_F5660_main.c" 1
 147  0043              	IF (10>=8) AND (10<( 4 + __PBP__ * 2))  AND ( __PBP__ > 2 )
 147  0043              ;# 147 "C:\HT-3000\UC_F5660\UC_F5660_main.c" 1
 147  0043              	NOP
 147  0043              	ENDIF
 147  0043              ;# 147 "C:\HT-3000\UC_F5660\UC_F5660_main.c" 1
 147  0043              	IF (10==9)  AND ( __PBP__ > 2 )
 147  0043              ;# 147 "C:\HT-3000\UC_F5660\UC_F5660_main.c" 1
 147  0043              	NOP
 147  0043              	ENDIF
 147  0043              ;# 147 "C:\HT-3000\UC_F5660\UC_F5660_main.c" 1
 147  0043              	IF (10< ( 8 + __PBP__ * 2)) AND (10>( 3 + __PBP__ * 2))
 147  0043              ;# 147 "C:\HT-3000\UC_F5660\UC_F5660_main.c" 1
 147  0043              	fcall __DELAY3 + ( 7 + __PBP__ * 2) -10
 147  0043              	ENDIF
 147  0043              ;# 147 "C:\HT-3000\UC_F5660\UC_F5660_main.c" 1
 147  0043              	IF (10< ( 0404h + __PBP__ * 2)) AND (10>( 7 + __PBP__ * 2))
 147  0043              ;# 147 "C:\HT-3000\UC_F5660\UC_F5660_main.c" 1
 147  0043  0F01        	MOV A,(10-( 4 + __PBP__ * 2))/4
 147  0044              ;# 147 "C:\HT-3000\UC_F5660\UC_F5660_main.c" 1
 147  0044              	fcall __DELAYX3 + 3 -((10-( 4 + __PBP__ * 2)) MOD 4) 
 147  004B              	ENDIF
 147  004B              ;# 147 "C:\HT-3000\UC_F5660\UC_F5660_main.c" 1
 147  004B              	IF (10< ( 040bh + __PBP__ * 2)) AND (10> ( 0403h + __PBP__ * 2))
 147  004B              ;# 147 "C:\HT-3000\UC_F5660\UC_F5660_main.c" 1
 147  004B              	MOV A,0 
 147  004B              ;# 147 "C:\HT-3000\UC_F5660\UC_F5660_main.c" 1
 147  004B              	fcall __DELAYX6 + ( 040ah + __PBP__ * 2) -10
 147  004B              	ENDIF
 147  004B              ;# 147 "C:\HT-3000\UC_F5660\UC_F5660_main.c" 1
 147  004B              	IF (10 >= ( 040bh + __PBP__ * 2)) AND ((((10-( 9 + __PBP__ * 2))%0402h)/4+1)>256)
 147  004B              ;# 147 "C:\HT-3000\UC_F5660\UC_F5660_main.c" 1
 147  004B              	MOV A,(10-( 9 + __PBP__ * 2))/0402h
 147  004B              ;# 147 "C:\HT-3000\UC_F5660\UC_F5660_main.c" 1
 147  004B              	MOV _builtin_holtek_delay_2,A
 147  004B              ;# 147 "C:\HT-3000\UC_F5660\UC_F5660_main.c" 1
 147  004B              	MOV A,0
 147  004B              ;# 147 "C:\HT-3000\UC_F5660\UC_F5660_main.c" 1
 147  004B              	fcall __DELAYY5 +5- (((10-( 9 + __PBP__ * 2))%0402h)%6) 
 147  004B              	ENDIF
 147  004B              ;# 147 "C:\HT-3000\UC_F5660\UC_F5660_main.c" 1
 147  004B              	IF (10 >= ( 040bh + __PBP__ * 2)) AND ((((10-( 9 + __PBP__ * 2))%0402h)/4+1)<=256)
 147  004B              ;# 147 "C:\HT-3000\UC_F5660\UC_F5660_main.c" 1
"File: UC_F5660_main.c  Assembler  Version HGASM0202      Page 9

 147  004B              	MOV A,(10-( 9 + __PBP__ * 2))/0402h
 147  004B              ;# 147 "C:\HT-3000\UC_F5660\UC_F5660_main.c" 1
 147  004B              	MOV _builtin_holtek_delay_2,A
 147  004B              ;# 147 "C:\HT-3000\UC_F5660\UC_F5660_main.c" 1
 147  004B              	MOV A,((10-( 9 + __PBP__ * 2))%0402h)/4+1
 147  004B              ;# 147 "C:\HT-3000\UC_F5660\UC_F5660_main.c" 1
 147  004B              	fcall __DELAYY3 +3-(((10-( 9 + __PBP__ * 2))%0402h)%4) 
 147  004B              	ENDIF
 147  004B  1580     R  	dec _init_HT16K33_2[0]
 126  004C              #line 126 "C:\HT-3000\UC_F5660\UC_F5660_main.c"
 126  004C  1600     R  	siza _init_HT16K33_2[0]
 126  004D  2800     R  	jmp _L16
 126  004E              _L14:
 152  004E              #line 152 "C:\HT-3000\UC_F5660\UC_F5660_main.c"
 152  004E              ;# 152 "C:\HT-3000\UC_F5660\UC_F5660_main.c" 1
 152  004E              	IF 10>263690
 152  004E              ;# 152 "C:\HT-3000\UC_F5660\UC_F5660_main.c" 1
 152  004E              	ERRMESSAGE 'the value 10of the argument exceeds the maxinum 263690'
 152  004E              	ENDIF
 152  004E              ;# 152 "C:\HT-3000\UC_F5660\UC_F5660_main.c" 1
 152  004E              	IF 10<0
 152  004E              ;# 152 "C:\HT-3000\UC_F5660\UC_F5660_main.c" 1
 152  004E              	ERRMESSAGE 'the value 10 of the argument exceeds the mininum 0'
 152  004E              	ENDIF
 152  004E              ;# 152 "C:\HT-3000\UC_F5660\UC_F5660_main.c" 1
 152  004E              	IF 10==0
 152  004E              ;# 152 "C:\HT-3000\UC_F5660\UC_F5660_main.c" 1
 152  004E              	JMP $
 152  004E              	ENDIF
 152  004E              ;# 152 "C:\HT-3000\UC_F5660\UC_F5660_main.c" 1
 152  004E              	IF (10>=1) AND (10<( 4 + __PBP__ * 2))
 152  004E              ;# 152 "C:\HT-3000\UC_F5660\UC_F5660_main.c" 1
 152  004E              	NOP
 152  004E              	ENDIF
 152  004E              ;# 152 "C:\HT-3000\UC_F5660\UC_F5660_main.c" 1
 152  004E              	IF (10>=2) AND (10<( 4 + __PBP__ * 2))
 152  004E              ;# 152 "C:\HT-3000\UC_F5660\UC_F5660_main.c" 1
 152  004E              	NOP
 152  004E              	ENDIF
 152  004E              ;# 152 "C:\HT-3000\UC_F5660\UC_F5660_main.c" 1
 152  004E              	IF (10>=3) AND (10<( 4 + __PBP__ * 2))
 152  004E              ;# 152 "C:\HT-3000\UC_F5660\UC_F5660_main.c" 1
 152  004E              	NOP
 152  004E              	ENDIF
 152  004E              ;# 152 "C:\HT-3000\UC_F5660\UC_F5660_main.c" 1
 152  004E              	IF (10>=4) AND (10<( 4 + __PBP__ * 2)) AND ( __PBP__ > 0 )
 152  004E              ;# 152 "C:\HT-3000\UC_F5660\UC_F5660_main.c" 1
 152  004E              	NOP
 152  004E              	ENDIF
 152  004E              ;# 152 "C:\HT-3000\UC_F5660\UC_F5660_main.c" 1
 152  004E              	IF (10>=5) AND (10<( 4 + __PBP__ * 2)) AND ( __PBP__ > 0 )
 152  004E              ;# 152 "C:\HT-3000\UC_F5660\UC_F5660_main.c" 1
 152  004E              	NOP
 152  004E              	ENDIF
 152  004E              ;# 152 "C:\HT-3000\UC_F5660\UC_F5660_main.c" 1
 152  004E              	IF (10>=6) AND (10<( 4 + __PBP__ * 2))  AND ( __PBP__ > 1 )
 152  004E              ;# 152 "C:\HT-3000\UC_F5660\UC_F5660_main.c" 1
 152  004E              	NOP
 152  004E              	ENDIF
 152  004E              ;# 152 "C:\HT-3000\UC_F5660\UC_F5660_main.c" 1
"File: UC_F5660_main.c  Assembler  Version HGASM0202      Page 10

 152  004E              	IF (10>=7) AND (10<( 4 + __PBP__ * 2))  AND ( __PBP__ > 1 )
 152  004E              ;# 152 "C:\HT-3000\UC_F5660\UC_F5660_main.c" 1
 152  004E              	NOP
 152  004E              	ENDIF
 152  004E              ;# 152 "C:\HT-3000\UC_F5660\UC_F5660_main.c" 1
 152  004E              	IF (10>=8) AND (10<( 4 + __PBP__ * 2))  AND ( __PBP__ > 2 )
 152  004E              ;# 152 "C:\HT-3000\UC_F5660\UC_F5660_main.c" 1
 152  004E              	NOP
 152  004E              	ENDIF
 152  004E              ;# 152 "C:\HT-3000\UC_F5660\UC_F5660_main.c" 1
 152  004E              	IF (10==9)  AND ( __PBP__ > 2 )
 152  004E              ;# 152 "C:\HT-3000\UC_F5660\UC_F5660_main.c" 1
 152  004E              	NOP
 152  004E              	ENDIF
 152  004E              ;# 152 "C:\HT-3000\UC_F5660\UC_F5660_main.c" 1
 152  004E              	IF (10< ( 8 + __PBP__ * 2)) AND (10>( 3 + __PBP__ * 2))
 152  004E              ;# 152 "C:\HT-3000\UC_F5660\UC_F5660_main.c" 1
 152  004E              	fcall __DELAY3 + ( 7 + __PBP__ * 2) -10
 152  004E              	ENDIF
 152  004E              ;# 152 "C:\HT-3000\UC_F5660\UC_F5660_main.c" 1
 152  004E              	IF (10< ( 0404h + __PBP__ * 2)) AND (10>( 7 + __PBP__ * 2))
 152  004E              ;# 152 "C:\HT-3000\UC_F5660\UC_F5660_main.c" 1
 152  004E  0F01        	MOV A,(10-( 4 + __PBP__ * 2))/4
 152  004F              ;# 152 "C:\HT-3000\UC_F5660\UC_F5660_main.c" 1
 152  004F              	fcall __DELAYX3 + 3 -((10-( 4 + __PBP__ * 2)) MOD 4) 
 152  0056              	ENDIF
 152  0056              ;# 152 "C:\HT-3000\UC_F5660\UC_F5660_main.c" 1
 152  0056              	IF (10< ( 040bh + __PBP__ * 2)) AND (10> ( 0403h + __PBP__ * 2))
 152  0056              ;# 152 "C:\HT-3000\UC_F5660\UC_F5660_main.c" 1
 152  0056              	MOV A,0 
 152  0056              ;# 152 "C:\HT-3000\UC_F5660\UC_F5660_main.c" 1
 152  0056              	fcall __DELAYX6 + ( 040ah + __PBP__ * 2) -10
 152  0056              	ENDIF
 152  0056              ;# 152 "C:\HT-3000\UC_F5660\UC_F5660_main.c" 1
 152  0056              	IF (10 >= ( 040bh + __PBP__ * 2)) AND ((((10-( 9 + __PBP__ * 2))%0402h)/4+1)>256)
 152  0056              ;# 152 "C:\HT-3000\UC_F5660\UC_F5660_main.c" 1
 152  0056              	MOV A,(10-( 9 + __PBP__ * 2))/0402h
 152  0056              ;# 152 "C:\HT-3000\UC_F5660\UC_F5660_main.c" 1
 152  0056              	MOV _builtin_holtek_delay_2,A
 152  0056              ;# 152 "C:\HT-3000\UC_F5660\UC_F5660_main.c" 1
 152  0056              	MOV A,0
 152  0056              ;# 152 "C:\HT-3000\UC_F5660\UC_F5660_main.c" 1
 152  0056              	fcall __DELAYY5 +5- (((10-( 9 + __PBP__ * 2))%0402h)%6) 
 152  0056              	ENDIF
 152  0056              ;# 152 "C:\HT-3000\UC_F5660\UC_F5660_main.c" 1
 152  0056              	IF (10 >= ( 040bh + __PBP__ * 2)) AND ((((10-( 9 + __PBP__ * 2))%0402h)/4+1)<=256)
 152  0056              ;# 152 "C:\HT-3000\UC_F5660\UC_F5660_main.c" 1
 152  0056              	MOV A,(10-( 9 + __PBP__ * 2))/0402h
 152  0056              ;# 152 "C:\HT-3000\UC_F5660\UC_F5660_main.c" 1
 152  0056              	MOV _builtin_holtek_delay_2,A
 152  0056              ;# 152 "C:\HT-3000\UC_F5660\UC_F5660_main.c" 1
 152  0056              	MOV A,((10-( 9 + __PBP__ * 2))%0402h)/4+1
 152  0056              ;# 152 "C:\HT-3000\UC_F5660\UC_F5660_main.c" 1
 152  0056              	fcall __DELAYY3 +3-(((10-( 9 + __PBP__ * 2))%0402h)%4) 
 152  0056              	ENDIF
 152  0056  0F04        	mov a,4
 152  0057  0080     R  	mov _init_HT16K33_2[0],a
 152  0058              _L21:
 159  0058              #line 159 "C:\HT-3000\UC_F5660\UC_F5660_main.c"
 159  0058              	fcall _i2c_start
"File: UC_F5660_main.c  Assembler  Version HGASM0202      Page 11

 160  005F              #line 160 "C:\HT-3000\UC_F5660\UC_F5660_main.c"
 160  005F  0FE0        	mov a,224
 160  0060              	fcall _i2c_write
 161  0067              #line 161 "C:\HT-3000\UC_F5660\UC_F5660_main.c"
 161  0067              	fcall _i2c_read_ACK
 161  006E  0080     E  	mov ra,a
 161  006F  1080     E  	sz ra
 161  0070  2800     R  	jmp _L17
 164  0071              #line 164 "C:\HT-3000\UC_F5660\UC_F5660_main.c"
 164  0071  0FA0        	mov a,160
 164  0072              	fcall _i2c_write
 165  0079              #line 165 "C:\HT-3000\UC_F5660\UC_F5660_main.c"
 165  0079              	fcall _i2c_read_ACK
 165  0080  0080     E  	mov ra,a
 165  0081  1080     E  	sz ra
 165  0082  2800     R  	jmp _L17
 167  0083              #line 167 "C:\HT-3000\UC_F5660\UC_F5660_main.c"
 167  0083              	fcall _i2c_stop
 168  008A              #line 168 "C:\HT-3000\UC_F5660\UC_F5660_main.c"
 168  008A  2800     R  	jmp _L19
 168  008B              _L17:
 177  008B              #line 177 "C:\HT-3000\UC_F5660\UC_F5660_main.c"
 177  008B              	fcall _i2c_stop
 178  0092              #line 178 "C:\HT-3000\UC_F5660\UC_F5660_main.c"
 178  0092              ;# 178 "C:\HT-3000\UC_F5660\UC_F5660_main.c" 1
 178  0092              	IF 10>263690
 178  0092              ;# 178 "C:\HT-3000\UC_F5660\UC_F5660_main.c" 1
 178  0092              	ERRMESSAGE 'the value 10of the argument exceeds the maxinum 263690'
 178  0092              	ENDIF
 178  0092              ;# 178 "C:\HT-3000\UC_F5660\UC_F5660_main.c" 1
 178  0092              	IF 10<0
 178  0092              ;# 178 "C:\HT-3000\UC_F5660\UC_F5660_main.c" 1
 178  0092              	ERRMESSAGE 'the value 10 of the argument exceeds the mininum 0'
 178  0092              	ENDIF
 178  0092              ;# 178 "C:\HT-3000\UC_F5660\UC_F5660_main.c" 1
 178  0092              	IF 10==0
 178  0092              ;# 178 "C:\HT-3000\UC_F5660\UC_F5660_main.c" 1
 178  0092              	JMP $
 178  0092              	ENDIF
 178  0092              ;# 178 "C:\HT-3000\UC_F5660\UC_F5660_main.c" 1
 178  0092              	IF (10>=1) AND (10<( 4 + __PBP__ * 2))
 178  0092              ;# 178 "C:\HT-3000\UC_F5660\UC_F5660_main.c" 1
 178  0092              	NOP
 178  0092              	ENDIF
 178  0092              ;# 178 "C:\HT-3000\UC_F5660\UC_F5660_main.c" 1
 178  0092              	IF (10>=2) AND (10<( 4 + __PBP__ * 2))
 178  0092              ;# 178 "C:\HT-3000\UC_F5660\UC_F5660_main.c" 1
 178  0092              	NOP
 178  0092              	ENDIF
 178  0092              ;# 178 "C:\HT-3000\UC_F5660\UC_F5660_main.c" 1
 178  0092              	IF (10>=3) AND (10<( 4 + __PBP__ * 2))
 178  0092              ;# 178 "C:\HT-3000\UC_F5660\UC_F5660_main.c" 1
 178  0092              	NOP
 178  0092              	ENDIF
 178  0092              ;# 178 "C:\HT-3000\UC_F5660\UC_F5660_main.c" 1
 178  0092              	IF (10>=4) AND (10<( 4 + __PBP__ * 2)) AND ( __PBP__ > 0 )
 178  0092              ;# 178 "C:\HT-3000\UC_F5660\UC_F5660_main.c" 1
 178  0092              	NOP
 178  0092              	ENDIF
 178  0092              ;# 178 "C:\HT-3000\UC_F5660\UC_F5660_main.c" 1
"File: UC_F5660_main.c  Assembler  Version HGASM0202      Page 12

 178  0092              	IF (10>=5) AND (10<( 4 + __PBP__ * 2)) AND ( __PBP__ > 0 )
 178  0092              ;# 178 "C:\HT-3000\UC_F5660\UC_F5660_main.c" 1
 178  0092              	NOP
 178  0092              	ENDIF
 178  0092              ;# 178 "C:\HT-3000\UC_F5660\UC_F5660_main.c" 1
 178  0092              	IF (10>=6) AND (10<( 4 + __PBP__ * 2))  AND ( __PBP__ > 1 )
 178  0092              ;# 178 "C:\HT-3000\UC_F5660\UC_F5660_main.c" 1
 178  0092              	NOP
 178  0092              	ENDIF
 178  0092              ;# 178 "C:\HT-3000\UC_F5660\UC_F5660_main.c" 1
 178  0092              	IF (10>=7) AND (10<( 4 + __PBP__ * 2))  AND ( __PBP__ > 1 )
 178  0092              ;# 178 "C:\HT-3000\UC_F5660\UC_F5660_main.c" 1
 178  0092              	NOP
 178  0092              	ENDIF
 178  0092              ;# 178 "C:\HT-3000\UC_F5660\UC_F5660_main.c" 1
 178  0092              	IF (10>=8) AND (10<( 4 + __PBP__ * 2))  AND ( __PBP__ > 2 )
 178  0092              ;# 178 "C:\HT-3000\UC_F5660\UC_F5660_main.c" 1
 178  0092              	NOP
 178  0092              	ENDIF
 178  0092              ;# 178 "C:\HT-3000\UC_F5660\UC_F5660_main.c" 1
 178  0092              	IF (10==9)  AND ( __PBP__ > 2 )
 178  0092              ;# 178 "C:\HT-3000\UC_F5660\UC_F5660_main.c" 1
 178  0092              	NOP
 178  0092              	ENDIF
 178  0092              ;# 178 "C:\HT-3000\UC_F5660\UC_F5660_main.c" 1
 178  0092              	IF (10< ( 8 + __PBP__ * 2)) AND (10>( 3 + __PBP__ * 2))
 178  0092              ;# 178 "C:\HT-3000\UC_F5660\UC_F5660_main.c" 1
 178  0092              	fcall __DELAY3 + ( 7 + __PBP__ * 2) -10
 178  0092              	ENDIF
 178  0092              ;# 178 "C:\HT-3000\UC_F5660\UC_F5660_main.c" 1
 178  0092              	IF (10< ( 0404h + __PBP__ * 2)) AND (10>( 7 + __PBP__ * 2))
 178  0092              ;# 178 "C:\HT-3000\UC_F5660\UC_F5660_main.c" 1
 178  0092  0F01        	MOV A,(10-( 4 + __PBP__ * 2))/4
 178  0093              ;# 178 "C:\HT-3000\UC_F5660\UC_F5660_main.c" 1
 178  0093              	fcall __DELAYX3 + 3 -((10-( 4 + __PBP__ * 2)) MOD 4) 
 178  009A              	ENDIF
 178  009A              ;# 178 "C:\HT-3000\UC_F5660\UC_F5660_main.c" 1
 178  009A              	IF (10< ( 040bh + __PBP__ * 2)) AND (10> ( 0403h + __PBP__ * 2))
 178  009A              ;# 178 "C:\HT-3000\UC_F5660\UC_F5660_main.c" 1
 178  009A              	MOV A,0 
 178  009A              ;# 178 "C:\HT-3000\UC_F5660\UC_F5660_main.c" 1
 178  009A              	fcall __DELAYX6 + ( 040ah + __PBP__ * 2) -10
 178  009A              	ENDIF
 178  009A              ;# 178 "C:\HT-3000\UC_F5660\UC_F5660_main.c" 1
 178  009A              	IF (10 >= ( 040bh + __PBP__ * 2)) AND ((((10-( 9 + __PBP__ * 2))%0402h)/4+1)>256)
 178  009A              ;# 178 "C:\HT-3000\UC_F5660\UC_F5660_main.c" 1
 178  009A              	MOV A,(10-( 9 + __PBP__ * 2))/0402h
 178  009A              ;# 178 "C:\HT-3000\UC_F5660\UC_F5660_main.c" 1
 178  009A              	MOV _builtin_holtek_delay_2,A
 178  009A              ;# 178 "C:\HT-3000\UC_F5660\UC_F5660_main.c" 1
 178  009A              	MOV A,0
 178  009A              ;# 178 "C:\HT-3000\UC_F5660\UC_F5660_main.c" 1
 178  009A              	fcall __DELAYY5 +5- (((10-( 9 + __PBP__ * 2))%0402h)%6) 
 178  009A              	ENDIF
 178  009A              ;# 178 "C:\HT-3000\UC_F5660\UC_F5660_main.c" 1
 178  009A              	IF (10 >= ( 040bh + __PBP__ * 2)) AND ((((10-( 9 + __PBP__ * 2))%0402h)/4+1)<=256)
 178  009A              ;# 178 "C:\HT-3000\UC_F5660\UC_F5660_main.c" 1
 178  009A              	MOV A,(10-( 9 + __PBP__ * 2))/0402h
 178  009A              ;# 178 "C:\HT-3000\UC_F5660\UC_F5660_main.c" 1
 178  009A              	MOV _builtin_holtek_delay_2,A
"File: UC_F5660_main.c  Assembler  Version HGASM0202      Page 13

 178  009A              ;# 178 "C:\HT-3000\UC_F5660\UC_F5660_main.c" 1
 178  009A              	MOV A,((10-( 9 + __PBP__ * 2))%0402h)/4+1
 178  009A              ;# 178 "C:\HT-3000\UC_F5660\UC_F5660_main.c" 1
 178  009A              	fcall __DELAYY3 +3-(((10-( 9 + __PBP__ * 2))%0402h)%4) 
 178  009A              	ENDIF
 178  009A  1580     R  	dec _init_HT16K33_2[0]
 156  009B              #line 156 "C:\HT-3000\UC_F5660\UC_F5660_main.c"
 156  009B  1600     R  	siza _init_HT16K33_2[0]
 156  009C  2800     R  	jmp _L21
 156  009D              _L19:
 184  009D              #line 184 "C:\HT-3000\UC_F5660\UC_F5660_main.c"
 184  009D              ;# 184 "C:\HT-3000\UC_F5660\UC_F5660_main.c" 1
 184  009D              	IF 10>263690
 184  009D              ;# 184 "C:\HT-3000\UC_F5660\UC_F5660_main.c" 1
 184  009D              	ERRMESSAGE 'the value 10of the argument exceeds the maxinum 263690'
 184  009D              	ENDIF
 184  009D              ;# 184 "C:\HT-3000\UC_F5660\UC_F5660_main.c" 1
 184  009D              	IF 10<0
 184  009D              ;# 184 "C:\HT-3000\UC_F5660\UC_F5660_main.c" 1
 184  009D              	ERRMESSAGE 'the value 10 of the argument exceeds the mininum 0'
 184  009D              	ENDIF
 184  009D              ;# 184 "C:\HT-3000\UC_F5660\UC_F5660_main.c" 1
 184  009D              	IF 10==0
 184  009D              ;# 184 "C:\HT-3000\UC_F5660\UC_F5660_main.c" 1
 184  009D              	JMP $
 184  009D              	ENDIF
 184  009D              ;# 184 "C:\HT-3000\UC_F5660\UC_F5660_main.c" 1
 184  009D              	IF (10>=1) AND (10<( 4 + __PBP__ * 2))
 184  009D              ;# 184 "C:\HT-3000\UC_F5660\UC_F5660_main.c" 1
 184  009D              	NOP
 184  009D              	ENDIF
 184  009D              ;# 184 "C:\HT-3000\UC_F5660\UC_F5660_main.c" 1
 184  009D              	IF (10>=2) AND (10<( 4 + __PBP__ * 2))
 184  009D              ;# 184 "C:\HT-3000\UC_F5660\UC_F5660_main.c" 1
 184  009D              	NOP
 184  009D              	ENDIF
 184  009D              ;# 184 "C:\HT-3000\UC_F5660\UC_F5660_main.c" 1
 184  009D              	IF (10>=3) AND (10<( 4 + __PBP__ * 2))
 184  009D              ;# 184 "C:\HT-3000\UC_F5660\UC_F5660_main.c" 1
 184  009D              	NOP
 184  009D              	ENDIF
 184  009D              ;# 184 "C:\HT-3000\UC_F5660\UC_F5660_main.c" 1
 184  009D              	IF (10>=4) AND (10<( 4 + __PBP__ * 2)) AND ( __PBP__ > 0 )
 184  009D              ;# 184 "C:\HT-3000\UC_F5660\UC_F5660_main.c" 1
 184  009D              	NOP
 184  009D              	ENDIF
 184  009D              ;# 184 "C:\HT-3000\UC_F5660\UC_F5660_main.c" 1
 184  009D              	IF (10>=5) AND (10<( 4 + __PBP__ * 2)) AND ( __PBP__ > 0 )
 184  009D              ;# 184 "C:\HT-3000\UC_F5660\UC_F5660_main.c" 1
 184  009D              	NOP
 184  009D              	ENDIF
 184  009D              ;# 184 "C:\HT-3000\UC_F5660\UC_F5660_main.c" 1
 184  009D              	IF (10>=6) AND (10<( 4 + __PBP__ * 2))  AND ( __PBP__ > 1 )
 184  009D              ;# 184 "C:\HT-3000\UC_F5660\UC_F5660_main.c" 1
 184  009D              	NOP
 184  009D              	ENDIF
 184  009D              ;# 184 "C:\HT-3000\UC_F5660\UC_F5660_main.c" 1
 184  009D              	IF (10>=7) AND (10<( 4 + __PBP__ * 2))  AND ( __PBP__ > 1 )
 184  009D              ;# 184 "C:\HT-3000\UC_F5660\UC_F5660_main.c" 1
 184  009D              	NOP
"File: UC_F5660_main.c  Assembler  Version HGASM0202      Page 14

 184  009D              	ENDIF
 184  009D              ;# 184 "C:\HT-3000\UC_F5660\UC_F5660_main.c" 1
 184  009D              	IF (10>=8) AND (10<( 4 + __PBP__ * 2))  AND ( __PBP__ > 2 )
 184  009D              ;# 184 "C:\HT-3000\UC_F5660\UC_F5660_main.c" 1
 184  009D              	NOP
 184  009D              	ENDIF
 184  009D              ;# 184 "C:\HT-3000\UC_F5660\UC_F5660_main.c" 1
 184  009D              	IF (10==9)  AND ( __PBP__ > 2 )
 184  009D              ;# 184 "C:\HT-3000\UC_F5660\UC_F5660_main.c" 1
 184  009D              	NOP
 184  009D              	ENDIF
 184  009D              ;# 184 "C:\HT-3000\UC_F5660\UC_F5660_main.c" 1
 184  009D              	IF (10< ( 8 + __PBP__ * 2)) AND (10>( 3 + __PBP__ * 2))
 184  009D              ;# 184 "C:\HT-3000\UC_F5660\UC_F5660_main.c" 1
 184  009D              	fcall __DELAY3 + ( 7 + __PBP__ * 2) -10
 184  009D              	ENDIF
 184  009D              ;# 184 "C:\HT-3000\UC_F5660\UC_F5660_main.c" 1
 184  009D              	IF (10< ( 0404h + __PBP__ * 2)) AND (10>( 7 + __PBP__ * 2))
 184  009D              ;# 184 "C:\HT-3000\UC_F5660\UC_F5660_main.c" 1
 184  009D  0F01        	MOV A,(10-( 4 + __PBP__ * 2))/4
 184  009E              ;# 184 "C:\HT-3000\UC_F5660\UC_F5660_main.c" 1
 184  009E              	fcall __DELAYX3 + 3 -((10-( 4 + __PBP__ * 2)) MOD 4) 
 184  00A5              	ENDIF
 184  00A5              ;# 184 "C:\HT-3000\UC_F5660\UC_F5660_main.c" 1
 184  00A5              	IF (10< ( 040bh + __PBP__ * 2)) AND (10> ( 0403h + __PBP__ * 2))
 184  00A5              ;# 184 "C:\HT-3000\UC_F5660\UC_F5660_main.c" 1
 184  00A5              	MOV A,0 
 184  00A5              ;# 184 "C:\HT-3000\UC_F5660\UC_F5660_main.c" 1
 184  00A5              	fcall __DELAYX6 + ( 040ah + __PBP__ * 2) -10
 184  00A5              	ENDIF
 184  00A5              ;# 184 "C:\HT-3000\UC_F5660\UC_F5660_main.c" 1
 184  00A5              	IF (10 >= ( 040bh + __PBP__ * 2)) AND ((((10-( 9 + __PBP__ * 2))%0402h)/4+1)>256)
 184  00A5              ;# 184 "C:\HT-3000\UC_F5660\UC_F5660_main.c" 1
 184  00A5              	MOV A,(10-( 9 + __PBP__ * 2))/0402h
 184  00A5              ;# 184 "C:\HT-3000\UC_F5660\UC_F5660_main.c" 1
 184  00A5              	MOV _builtin_holtek_delay_2,A
 184  00A5              ;# 184 "C:\HT-3000\UC_F5660\UC_F5660_main.c" 1
 184  00A5              	MOV A,0
 184  00A5              ;# 184 "C:\HT-3000\UC_F5660\UC_F5660_main.c" 1
 184  00A5              	fcall __DELAYY5 +5- (((10-( 9 + __PBP__ * 2))%0402h)%6) 
 184  00A5              	ENDIF
 184  00A5              ;# 184 "C:\HT-3000\UC_F5660\UC_F5660_main.c" 1
 184  00A5              	IF (10 >= ( 040bh + __PBP__ * 2)) AND ((((10-( 9 + __PBP__ * 2))%0402h)/4+1)<=256)
 184  00A5              ;# 184 "C:\HT-3000\UC_F5660\UC_F5660_main.c" 1
 184  00A5              	MOV A,(10-( 9 + __PBP__ * 2))/0402h
 184  00A5              ;# 184 "C:\HT-3000\UC_F5660\UC_F5660_main.c" 1
 184  00A5              	MOV _builtin_holtek_delay_2,A
 184  00A5              ;# 184 "C:\HT-3000\UC_F5660\UC_F5660_main.c" 1
 184  00A5              	MOV A,((10-( 9 + __PBP__ * 2))%0402h)/4+1
 184  00A5              ;# 184 "C:\HT-3000\UC_F5660\UC_F5660_main.c" 1
 184  00A5              	fcall __DELAYY3 +3-(((10-( 9 + __PBP__ * 2))%0402h)%4) 
 184  00A5              	ENDIF
 184  00A5  0F04        	mov a,4
 184  00A6  0080     R  	mov _init_HT16K33_2[0],a
 184  00A7              _L26:
 192  00A7              #line 192 "C:\HT-3000\UC_F5660\UC_F5660_main.c"
 192  00A7              	fcall _i2c_start
 193  00AE              #line 193 "C:\HT-3000\UC_F5660\UC_F5660_main.c"
 193  00AE  0FE0        	mov a,224
 193  00AF              	fcall _i2c_write
"File: UC_F5660_main.c  Assembler  Version HGASM0202      Page 15

 194  00B6              #line 194 "C:\HT-3000\UC_F5660\UC_F5660_main.c"
 194  00B6              	fcall _i2c_read_ACK
 194  00BD  0080     E  	mov ra,a
 194  00BE  1080     E  	sz ra
 194  00BF  2800     R  	jmp _L22
 197  00C0              #line 197 "C:\HT-3000\UC_F5660\UC_F5660_main.c"
 197  00C0  0FEF        	mov a,239
 197  00C1              	fcall _i2c_write
 198  00C8              #line 198 "C:\HT-3000\UC_F5660\UC_F5660_main.c"
 198  00C8              	fcall _i2c_read_ACK
 198  00CF  0080     E  	mov ra,a
 198  00D0  1080     E  	sz ra
 198  00D1  2800     R  	jmp _L22
 200  00D2              #line 200 "C:\HT-3000\UC_F5660\UC_F5660_main.c"
 200  00D2              	fcall _i2c_stop
 201  00D9              #line 201 "C:\HT-3000\UC_F5660\UC_F5660_main.c"
 201  00D9  2800     R  	jmp _L24
 201  00DA              _L22:
 210  00DA              #line 210 "C:\HT-3000\UC_F5660\UC_F5660_main.c"
 210  00DA              	fcall _i2c_stop
 211  00E1              #line 211 "C:\HT-3000\UC_F5660\UC_F5660_main.c"
 211  00E1              ;# 211 "C:\HT-3000\UC_F5660\UC_F5660_main.c" 1
 211  00E1              	IF 10>263690
 211  00E1              ;# 211 "C:\HT-3000\UC_F5660\UC_F5660_main.c" 1
 211  00E1              	ERRMESSAGE 'the value 10of the argument exceeds the maxinum 263690'
 211  00E1              	ENDIF
 211  00E1              ;# 211 "C:\HT-3000\UC_F5660\UC_F5660_main.c" 1
 211  00E1              	IF 10<0
 211  00E1              ;# 211 "C:\HT-3000\UC_F5660\UC_F5660_main.c" 1
 211  00E1              	ERRMESSAGE 'the value 10 of the argument exceeds the mininum 0'
 211  00E1              	ENDIF
 211  00E1              ;# 211 "C:\HT-3000\UC_F5660\UC_F5660_main.c" 1
 211  00E1              	IF 10==0
 211  00E1              ;# 211 "C:\HT-3000\UC_F5660\UC_F5660_main.c" 1
 211  00E1              	JMP $
 211  00E1              	ENDIF
 211  00E1              ;# 211 "C:\HT-3000\UC_F5660\UC_F5660_main.c" 1
 211  00E1              	IF (10>=1) AND (10<( 4 + __PBP__ * 2))
 211  00E1              ;# 211 "C:\HT-3000\UC_F5660\UC_F5660_main.c" 1
 211  00E1              	NOP
 211  00E1              	ENDIF
 211  00E1              ;# 211 "C:\HT-3000\UC_F5660\UC_F5660_main.c" 1
 211  00E1              	IF (10>=2) AND (10<( 4 + __PBP__ * 2))
 211  00E1              ;# 211 "C:\HT-3000\UC_F5660\UC_F5660_main.c" 1
 211  00E1              	NOP
 211  00E1              	ENDIF
 211  00E1              ;# 211 "C:\HT-3000\UC_F5660\UC_F5660_main.c" 1
 211  00E1              	IF (10>=3) AND (10<( 4 + __PBP__ * 2))
 211  00E1              ;# 211 "C:\HT-3000\UC_F5660\UC_F5660_main.c" 1
 211  00E1              	NOP
 211  00E1              	ENDIF
 211  00E1              ;# 211 "C:\HT-3000\UC_F5660\UC_F5660_main.c" 1
 211  00E1              	IF (10>=4) AND (10<( 4 + __PBP__ * 2)) AND ( __PBP__ > 0 )
 211  00E1              ;# 211 "C:\HT-3000\UC_F5660\UC_F5660_main.c" 1
 211  00E1              	NOP
 211  00E1              	ENDIF
 211  00E1              ;# 211 "C:\HT-3000\UC_F5660\UC_F5660_main.c" 1
 211  00E1              	IF (10>=5) AND (10<( 4 + __PBP__ * 2)) AND ( __PBP__ > 0 )
 211  00E1              ;# 211 "C:\HT-3000\UC_F5660\UC_F5660_main.c" 1
 211  00E1              	NOP
"File: UC_F5660_main.c  Assembler  Version HGASM0202      Page 16

 211  00E1              	ENDIF
 211  00E1              ;# 211 "C:\HT-3000\UC_F5660\UC_F5660_main.c" 1
 211  00E1              	IF (10>=6) AND (10<( 4 + __PBP__ * 2))  AND ( __PBP__ > 1 )
 211  00E1              ;# 211 "C:\HT-3000\UC_F5660\UC_F5660_main.c" 1
 211  00E1              	NOP
 211  00E1              	ENDIF
 211  00E1              ;# 211 "C:\HT-3000\UC_F5660\UC_F5660_main.c" 1
 211  00E1              	IF (10>=7) AND (10<( 4 + __PBP__ * 2))  AND ( __PBP__ > 1 )
 211  00E1              ;# 211 "C:\HT-3000\UC_F5660\UC_F5660_main.c" 1
 211  00E1              	NOP
 211  00E1              	ENDIF
 211  00E1              ;# 211 "C:\HT-3000\UC_F5660\UC_F5660_main.c" 1
 211  00E1              	IF (10>=8) AND (10<( 4 + __PBP__ * 2))  AND ( __PBP__ > 2 )
 211  00E1              ;# 211 "C:\HT-3000\UC_F5660\UC_F5660_main.c" 1
 211  00E1              	NOP
 211  00E1              	ENDIF
 211  00E1              ;# 211 "C:\HT-3000\UC_F5660\UC_F5660_main.c" 1
 211  00E1              	IF (10==9)  AND ( __PBP__ > 2 )
 211  00E1              ;# 211 "C:\HT-3000\UC_F5660\UC_F5660_main.c" 1
 211  00E1              	NOP
 211  00E1              	ENDIF
 211  00E1              ;# 211 "C:\HT-3000\UC_F5660\UC_F5660_main.c" 1
 211  00E1              	IF (10< ( 8 + __PBP__ * 2)) AND (10>( 3 + __PBP__ * 2))
 211  00E1              ;# 211 "C:\HT-3000\UC_F5660\UC_F5660_main.c" 1
 211  00E1              	fcall __DELAY3 + ( 7 + __PBP__ * 2) -10
 211  00E1              	ENDIF
 211  00E1              ;# 211 "C:\HT-3000\UC_F5660\UC_F5660_main.c" 1
 211  00E1              	IF (10< ( 0404h + __PBP__ * 2)) AND (10>( 7 + __PBP__ * 2))
 211  00E1              ;# 211 "C:\HT-3000\UC_F5660\UC_F5660_main.c" 1
 211  00E1  0F01        	MOV A,(10-( 4 + __PBP__ * 2))/4
 211  00E2              ;# 211 "C:\HT-3000\UC_F5660\UC_F5660_main.c" 1
 211  00E2              	fcall __DELAYX3 + 3 -((10-( 4 + __PBP__ * 2)) MOD 4) 
 211  00E9              	ENDIF
 211  00E9              ;# 211 "C:\HT-3000\UC_F5660\UC_F5660_main.c" 1
 211  00E9              	IF (10< ( 040bh + __PBP__ * 2)) AND (10> ( 0403h + __PBP__ * 2))
 211  00E9              ;# 211 "C:\HT-3000\UC_F5660\UC_F5660_main.c" 1
 211  00E9              	MOV A,0 
 211  00E9              ;# 211 "C:\HT-3000\UC_F5660\UC_F5660_main.c" 1
 211  00E9              	fcall __DELAYX6 + ( 040ah + __PBP__ * 2) -10
 211  00E9              	ENDIF
 211  00E9              ;# 211 "C:\HT-3000\UC_F5660\UC_F5660_main.c" 1
 211  00E9              	IF (10 >= ( 040bh + __PBP__ * 2)) AND ((((10-( 9 + __PBP__ * 2))%0402h)/4+1)>256)
 211  00E9              ;# 211 "C:\HT-3000\UC_F5660\UC_F5660_main.c" 1
 211  00E9              	MOV A,(10-( 9 + __PBP__ * 2))/0402h
 211  00E9              ;# 211 "C:\HT-3000\UC_F5660\UC_F5660_main.c" 1
 211  00E9              	MOV _builtin_holtek_delay_2,A
 211  00E9              ;# 211 "C:\HT-3000\UC_F5660\UC_F5660_main.c" 1
 211  00E9              	MOV A,0
 211  00E9              ;# 211 "C:\HT-3000\UC_F5660\UC_F5660_main.c" 1
 211  00E9              	fcall __DELAYY5 +5- (((10-( 9 + __PBP__ * 2))%0402h)%6) 
 211  00E9              	ENDIF
 211  00E9              ;# 211 "C:\HT-3000\UC_F5660\UC_F5660_main.c" 1
 211  00E9              	IF (10 >= ( 040bh + __PBP__ * 2)) AND ((((10-( 9 + __PBP__ * 2))%0402h)/4+1)<=256)
 211  00E9              ;# 211 "C:\HT-3000\UC_F5660\UC_F5660_main.c" 1
 211  00E9              	MOV A,(10-( 9 + __PBP__ * 2))/0402h
 211  00E9              ;# 211 "C:\HT-3000\UC_F5660\UC_F5660_main.c" 1
 211  00E9              	MOV _builtin_holtek_delay_2,A
 211  00E9              ;# 211 "C:\HT-3000\UC_F5660\UC_F5660_main.c" 1
 211  00E9              	MOV A,((10-( 9 + __PBP__ * 2))%0402h)/4+1
 211  00E9              ;# 211 "C:\HT-3000\UC_F5660\UC_F5660_main.c" 1
"File: UC_F5660_main.c  Assembler  Version HGASM0202      Page 17

 211  00E9              	fcall __DELAYY3 +3-(((10-( 9 + __PBP__ * 2))%0402h)%4) 
 211  00E9              	ENDIF
 211  00E9  1580     R  	dec _init_HT16K33_2[0]
 189  00EA              #line 189 "C:\HT-3000\UC_F5660\UC_F5660_main.c"
 189  00EA  1600     R  	siza _init_HT16K33_2[0]
 189  00EB  2800     R  	jmp _L26
 189  00EC              _L24:
 217  00EC              #line 217 "C:\HT-3000\UC_F5660\UC_F5660_main.c"
 217  00EC              ;# 217 "C:\HT-3000\UC_F5660\UC_F5660_main.c" 1
 217  00EC              	IF 10>263690
 217  00EC              ;# 217 "C:\HT-3000\UC_F5660\UC_F5660_main.c" 1
 217  00EC              	ERRMESSAGE 'the value 10of the argument exceeds the maxinum 263690'
 217  00EC              	ENDIF
 217  00EC              ;# 217 "C:\HT-3000\UC_F5660\UC_F5660_main.c" 1
 217  00EC              	IF 10<0
 217  00EC              ;# 217 "C:\HT-3000\UC_F5660\UC_F5660_main.c" 1
 217  00EC              	ERRMESSAGE 'the value 10 of the argument exceeds the mininum 0'
 217  00EC              	ENDIF
 217  00EC              ;# 217 "C:\HT-3000\UC_F5660\UC_F5660_main.c" 1
 217  00EC              	IF 10==0
 217  00EC              ;# 217 "C:\HT-3000\UC_F5660\UC_F5660_main.c" 1
 217  00EC              	JMP $
 217  00EC              	ENDIF
 217  00EC              ;# 217 "C:\HT-3000\UC_F5660\UC_F5660_main.c" 1
 217  00EC              	IF (10>=1) AND (10<( 4 + __PBP__ * 2))
 217  00EC              ;# 217 "C:\HT-3000\UC_F5660\UC_F5660_main.c" 1
 217  00EC              	NOP
 217  00EC              	ENDIF
 217  00EC              ;# 217 "C:\HT-3000\UC_F5660\UC_F5660_main.c" 1
 217  00EC              	IF (10>=2) AND (10<( 4 + __PBP__ * 2))
 217  00EC              ;# 217 "C:\HT-3000\UC_F5660\UC_F5660_main.c" 1
 217  00EC              	NOP
 217  00EC              	ENDIF
 217  00EC              ;# 217 "C:\HT-3000\UC_F5660\UC_F5660_main.c" 1
 217  00EC              	IF (10>=3) AND (10<( 4 + __PBP__ * 2))
 217  00EC              ;# 217 "C:\HT-3000\UC_F5660\UC_F5660_main.c" 1
 217  00EC              	NOP
 217  00EC              	ENDIF
 217  00EC              ;# 217 "C:\HT-3000\UC_F5660\UC_F5660_main.c" 1
 217  00EC              	IF (10>=4) AND (10<( 4 + __PBP__ * 2)) AND ( __PBP__ > 0 )
 217  00EC              ;# 217 "C:\HT-3000\UC_F5660\UC_F5660_main.c" 1
 217  00EC              	NOP
 217  00EC              	ENDIF
 217  00EC              ;# 217 "C:\HT-3000\UC_F5660\UC_F5660_main.c" 1
 217  00EC              	IF (10>=5) AND (10<( 4 + __PBP__ * 2)) AND ( __PBP__ > 0 )
 217  00EC              ;# 217 "C:\HT-3000\UC_F5660\UC_F5660_main.c" 1
 217  00EC              	NOP
 217  00EC              	ENDIF
 217  00EC              ;# 217 "C:\HT-3000\UC_F5660\UC_F5660_main.c" 1
 217  00EC              	IF (10>=6) AND (10<( 4 + __PBP__ * 2))  AND ( __PBP__ > 1 )
 217  00EC              ;# 217 "C:\HT-3000\UC_F5660\UC_F5660_main.c" 1
 217  00EC              	NOP
 217  00EC              	ENDIF
 217  00EC              ;# 217 "C:\HT-3000\UC_F5660\UC_F5660_main.c" 1
 217  00EC              	IF (10>=7) AND (10<( 4 + __PBP__ * 2))  AND ( __PBP__ > 1 )
 217  00EC              ;# 217 "C:\HT-3000\UC_F5660\UC_F5660_main.c" 1
 217  00EC              	NOP
 217  00EC              	ENDIF
 217  00EC              ;# 217 "C:\HT-3000\UC_F5660\UC_F5660_main.c" 1
 217  00EC              	IF (10>=8) AND (10<( 4 + __PBP__ * 2))  AND ( __PBP__ > 2 )
"File: UC_F5660_main.c  Assembler  Version HGASM0202      Page 18

 217  00EC              ;# 217 "C:\HT-3000\UC_F5660\UC_F5660_main.c" 1
 217  00EC              	NOP
 217  00EC              	ENDIF
 217  00EC              ;# 217 "C:\HT-3000\UC_F5660\UC_F5660_main.c" 1
 217  00EC              	IF (10==9)  AND ( __PBP__ > 2 )
 217  00EC              ;# 217 "C:\HT-3000\UC_F5660\UC_F5660_main.c" 1
 217  00EC              	NOP
 217  00EC              	ENDIF
 217  00EC              ;# 217 "C:\HT-3000\UC_F5660\UC_F5660_main.c" 1
 217  00EC              	IF (10< ( 8 + __PBP__ * 2)) AND (10>( 3 + __PBP__ * 2))
 217  00EC              ;# 217 "C:\HT-3000\UC_F5660\UC_F5660_main.c" 1
 217  00EC              	fcall __DELAY3 + ( 7 + __PBP__ * 2) -10
 217  00EC              	ENDIF
 217  00EC              ;# 217 "C:\HT-3000\UC_F5660\UC_F5660_main.c" 1
 217  00EC              	IF (10< ( 0404h + __PBP__ * 2)) AND (10>( 7 + __PBP__ * 2))
 217  00EC              ;# 217 "C:\HT-3000\UC_F5660\UC_F5660_main.c" 1
 217  00EC  0F01        	MOV A,(10-( 4 + __PBP__ * 2))/4
 217  00ED              ;# 217 "C:\HT-3000\UC_F5660\UC_F5660_main.c" 1
 217  00ED              	fcall __DELAYX3 + 3 -((10-( 4 + __PBP__ * 2)) MOD 4) 
 217  00F4              	ENDIF
 217  00F4              ;# 217 "C:\HT-3000\UC_F5660\UC_F5660_main.c" 1
 217  00F4              	IF (10< ( 040bh + __PBP__ * 2)) AND (10> ( 0403h + __PBP__ * 2))
 217  00F4              ;# 217 "C:\HT-3000\UC_F5660\UC_F5660_main.c" 1
 217  00F4              	MOV A,0 
 217  00F4              ;# 217 "C:\HT-3000\UC_F5660\UC_F5660_main.c" 1
 217  00F4              	fcall __DELAYX6 + ( 040ah + __PBP__ * 2) -10
 217  00F4              	ENDIF
 217  00F4              ;# 217 "C:\HT-3000\UC_F5660\UC_F5660_main.c" 1
 217  00F4              	IF (10 >= ( 040bh + __PBP__ * 2)) AND ((((10-( 9 + __PBP__ * 2))%0402h)/4+1)>256)
 217  00F4              ;# 217 "C:\HT-3000\UC_F5660\UC_F5660_main.c" 1
 217  00F4              	MOV A,(10-( 9 + __PBP__ * 2))/0402h
 217  00F4              ;# 217 "C:\HT-3000\UC_F5660\UC_F5660_main.c" 1
 217  00F4              	MOV _builtin_holtek_delay_2,A
 217  00F4              ;# 217 "C:\HT-3000\UC_F5660\UC_F5660_main.c" 1
 217  00F4              	MOV A,0
 217  00F4              ;# 217 "C:\HT-3000\UC_F5660\UC_F5660_main.c" 1
 217  00F4              	fcall __DELAYY5 +5- (((10-( 9 + __PBP__ * 2))%0402h)%6) 
 217  00F4              	ENDIF
 217  00F4              ;# 217 "C:\HT-3000\UC_F5660\UC_F5660_main.c" 1
 217  00F4              	IF (10 >= ( 040bh + __PBP__ * 2)) AND ((((10-( 9 + __PBP__ * 2))%0402h)/4+1)<=256)
 217  00F4              ;# 217 "C:\HT-3000\UC_F5660\UC_F5660_main.c" 1
 217  00F4              	MOV A,(10-( 9 + __PBP__ * 2))/0402h
 217  00F4              ;# 217 "C:\HT-3000\UC_F5660\UC_F5660_main.c" 1
 217  00F4              	MOV _builtin_holtek_delay_2,A
 217  00F4              ;# 217 "C:\HT-3000\UC_F5660\UC_F5660_main.c" 1
 217  00F4              	MOV A,((10-( 9 + __PBP__ * 2))%0402h)/4+1
 217  00F4              ;# 217 "C:\HT-3000\UC_F5660\UC_F5660_main.c" 1
 217  00F4              	fcall __DELAYY3 +3-(((10-( 9 + __PBP__ * 2))%0402h)%4) 
 217  00F4              	ENDIF
 217  00F4  0F04        	mov a,4
 217  00F5  0080     R  	mov _init_HT16K33_2[0],a
 217  00F6              _L31:
 224  00F6              #line 224 "C:\HT-3000\UC_F5660\UC_F5660_main.c"
 224  00F6              	fcall _i2c_start
 225  00FD              #line 225 "C:\HT-3000\UC_F5660\UC_F5660_main.c"
 225  00FD  0FE0        	mov a,224
 225  00FE              	fcall _i2c_write
 226  0105              #line 226 "C:\HT-3000\UC_F5660\UC_F5660_main.c"
 226  0105              	fcall _i2c_read_ACK
 226  010C  0080     E  	mov ra,a
"File: UC_F5660_main.c  Assembler  Version HGASM0202      Page 19

 226  010D  1080     E  	sz ra
 226  010E  2800     R  	jmp _L27
 229  010F              #line 229 "C:\HT-3000\UC_F5660\UC_F5660_main.c"
 229  010F  0F81        	mov a,129
 229  0110              	fcall _i2c_write
 230  0117              #line 230 "C:\HT-3000\UC_F5660\UC_F5660_main.c"
 230  0117              	fcall _i2c_read_ACK
 230  011E  0080     E  	mov ra,a
 230  011F  1080     E  	sz ra
 230  0120  2800     R  	jmp _L27
 232  0121              #line 232 "C:\HT-3000\UC_F5660\UC_F5660_main.c"
 232  0121              	fcall _i2c_stop
 233  0128              #line 233 "C:\HT-3000\UC_F5660\UC_F5660_main.c"
 233  0128  2800     R  	jmp _L29
 233  0129              _L27:
 242  0129              #line 242 "C:\HT-3000\UC_F5660\UC_F5660_main.c"
 242  0129              	fcall _i2c_stop
 243  0130              #line 243 "C:\HT-3000\UC_F5660\UC_F5660_main.c"
 243  0130              ;# 243 "C:\HT-3000\UC_F5660\UC_F5660_main.c" 1
 243  0130              	IF 10>263690
 243  0130              ;# 243 "C:\HT-3000\UC_F5660\UC_F5660_main.c" 1
 243  0130              	ERRMESSAGE 'the value 10of the argument exceeds the maxinum 263690'
 243  0130              	ENDIF
 243  0130              ;# 243 "C:\HT-3000\UC_F5660\UC_F5660_main.c" 1
 243  0130              	IF 10<0
 243  0130              ;# 243 "C:\HT-3000\UC_F5660\UC_F5660_main.c" 1
 243  0130              	ERRMESSAGE 'the value 10 of the argument exceeds the mininum 0'
 243  0130              	ENDIF
 243  0130              ;# 243 "C:\HT-3000\UC_F5660\UC_F5660_main.c" 1
 243  0130              	IF 10==0
 243  0130              ;# 243 "C:\HT-3000\UC_F5660\UC_F5660_main.c" 1
 243  0130              	JMP $
 243  0130              	ENDIF
 243  0130              ;# 243 "C:\HT-3000\UC_F5660\UC_F5660_main.c" 1
 243  0130              	IF (10>=1) AND (10<( 4 + __PBP__ * 2))
 243  0130              ;# 243 "C:\HT-3000\UC_F5660\UC_F5660_main.c" 1
 243  0130              	NOP
 243  0130              	ENDIF
 243  0130              ;# 243 "C:\HT-3000\UC_F5660\UC_F5660_main.c" 1
 243  0130              	IF (10>=2) AND (10<( 4 + __PBP__ * 2))
 243  0130              ;# 243 "C:\HT-3000\UC_F5660\UC_F5660_main.c" 1
 243  0130              	NOP
 243  0130              	ENDIF
 243  0130              ;# 243 "C:\HT-3000\UC_F5660\UC_F5660_main.c" 1
 243  0130              	IF (10>=3) AND (10<( 4 + __PBP__ * 2))
 243  0130              ;# 243 "C:\HT-3000\UC_F5660\UC_F5660_main.c" 1
 243  0130              	NOP
 243  0130              	ENDIF
 243  0130              ;# 243 "C:\HT-3000\UC_F5660\UC_F5660_main.c" 1
 243  0130              	IF (10>=4) AND (10<( 4 + __PBP__ * 2)) AND ( __PBP__ > 0 )
 243  0130              ;# 243 "C:\HT-3000\UC_F5660\UC_F5660_main.c" 1
 243  0130              	NOP
 243  0130              	ENDIF
 243  0130              ;# 243 "C:\HT-3000\UC_F5660\UC_F5660_main.c" 1
 243  0130              	IF (10>=5) AND (10<( 4 + __PBP__ * 2)) AND ( __PBP__ > 0 )
 243  0130              ;# 243 "C:\HT-3000\UC_F5660\UC_F5660_main.c" 1
 243  0130              	NOP
 243  0130              	ENDIF
 243  0130              ;# 243 "C:\HT-3000\UC_F5660\UC_F5660_main.c" 1
 243  0130              	IF (10>=6) AND (10<( 4 + __PBP__ * 2))  AND ( __PBP__ > 1 )
"File: UC_F5660_main.c  Assembler  Version HGASM0202      Page 20

 243  0130              ;# 243 "C:\HT-3000\UC_F5660\UC_F5660_main.c" 1
 243  0130              	NOP
 243  0130              	ENDIF
 243  0130              ;# 243 "C:\HT-3000\UC_F5660\UC_F5660_main.c" 1
 243  0130              	IF (10>=7) AND (10<( 4 + __PBP__ * 2))  AND ( __PBP__ > 1 )
 243  0130              ;# 243 "C:\HT-3000\UC_F5660\UC_F5660_main.c" 1
 243  0130              	NOP
 243  0130              	ENDIF
 243  0130              ;# 243 "C:\HT-3000\UC_F5660\UC_F5660_main.c" 1
 243  0130              	IF (10>=8) AND (10<( 4 + __PBP__ * 2))  AND ( __PBP__ > 2 )
 243  0130              ;# 243 "C:\HT-3000\UC_F5660\UC_F5660_main.c" 1
 243  0130              	NOP
 243  0130              	ENDIF
 243  0130              ;# 243 "C:\HT-3000\UC_F5660\UC_F5660_main.c" 1
 243  0130              	IF (10==9)  AND ( __PBP__ > 2 )
 243  0130              ;# 243 "C:\HT-3000\UC_F5660\UC_F5660_main.c" 1
 243  0130              	NOP
 243  0130              	ENDIF
 243  0130              ;# 243 "C:\HT-3000\UC_F5660\UC_F5660_main.c" 1
 243  0130              	IF (10< ( 8 + __PBP__ * 2)) AND (10>( 3 + __PBP__ * 2))
 243  0130              ;# 243 "C:\HT-3000\UC_F5660\UC_F5660_main.c" 1
 243  0130              	fcall __DELAY3 + ( 7 + __PBP__ * 2) -10
 243  0130              	ENDIF
 243  0130              ;# 243 "C:\HT-3000\UC_F5660\UC_F5660_main.c" 1
 243  0130              	IF (10< ( 0404h + __PBP__ * 2)) AND (10>( 7 + __PBP__ * 2))
 243  0130              ;# 243 "C:\HT-3000\UC_F5660\UC_F5660_main.c" 1
 243  0130  0F01        	MOV A,(10-( 4 + __PBP__ * 2))/4
 243  0131              ;# 243 "C:\HT-3000\UC_F5660\UC_F5660_main.c" 1
 243  0131              	fcall __DELAYX3 + 3 -((10-( 4 + __PBP__ * 2)) MOD 4) 
 243  0138              	ENDIF
 243  0138              ;# 243 "C:\HT-3000\UC_F5660\UC_F5660_main.c" 1
 243  0138              	IF (10< ( 040bh + __PBP__ * 2)) AND (10> ( 0403h + __PBP__ * 2))
 243  0138              ;# 243 "C:\HT-3000\UC_F5660\UC_F5660_main.c" 1
 243  0138              	MOV A,0 
 243  0138              ;# 243 "C:\HT-3000\UC_F5660\UC_F5660_main.c" 1
 243  0138              	fcall __DELAYX6 + ( 040ah + __PBP__ * 2) -10
 243  0138              	ENDIF
 243  0138              ;# 243 "C:\HT-3000\UC_F5660\UC_F5660_main.c" 1
 243  0138              	IF (10 >= ( 040bh + __PBP__ * 2)) AND ((((10-( 9 + __PBP__ * 2))%0402h)/4+1)>256)
 243  0138              ;# 243 "C:\HT-3000\UC_F5660\UC_F5660_main.c" 1
 243  0138              	MOV A,(10-( 9 + __PBP__ * 2))/0402h
 243  0138              ;# 243 "C:\HT-3000\UC_F5660\UC_F5660_main.c" 1
 243  0138              	MOV _builtin_holtek_delay_2,A
 243  0138              ;# 243 "C:\HT-3000\UC_F5660\UC_F5660_main.c" 1
 243  0138              	MOV A,0
 243  0138              ;# 243 "C:\HT-3000\UC_F5660\UC_F5660_main.c" 1
 243  0138              	fcall __DELAYY5 +5- (((10-( 9 + __PBP__ * 2))%0402h)%6) 
 243  0138              	ENDIF
 243  0138              ;# 243 "C:\HT-3000\UC_F5660\UC_F5660_main.c" 1
 243  0138              	IF (10 >= ( 040bh + __PBP__ * 2)) AND ((((10-( 9 + __PBP__ * 2))%0402h)/4+1)<=256)
 243  0138              ;# 243 "C:\HT-3000\UC_F5660\UC_F5660_main.c" 1
 243  0138              	MOV A,(10-( 9 + __PBP__ * 2))/0402h
 243  0138              ;# 243 "C:\HT-3000\UC_F5660\UC_F5660_main.c" 1
 243  0138              	MOV _builtin_holtek_delay_2,A
 243  0138              ;# 243 "C:\HT-3000\UC_F5660\UC_F5660_main.c" 1
 243  0138              	MOV A,((10-( 9 + __PBP__ * 2))%0402h)/4+1
 243  0138              ;# 243 "C:\HT-3000\UC_F5660\UC_F5660_main.c" 1
 243  0138              	fcall __DELAYY3 +3-(((10-( 9 + __PBP__ * 2))%0402h)%4) 
 243  0138              	ENDIF
 243  0138  1580     R  	dec _init_HT16K33_2[0]
"File: UC_F5660_main.c  Assembler  Version HGASM0202      Page 21

 221  0139              #line 221 "C:\HT-3000\UC_F5660\UC_F5660_main.c"
 221  0139  1600     R  	siza _init_HT16K33_2[0]
 221  013A  2800     R  	jmp _L31
 221  013B              _L29:
 249  013B              #line 249 "C:\HT-3000\UC_F5660\UC_F5660_main.c"
 249  013B              ;# 249 "C:\HT-3000\UC_F5660\UC_F5660_main.c" 1
 249  013B              	IF 10>263690
 249  013B              ;# 249 "C:\HT-3000\UC_F5660\UC_F5660_main.c" 1
 249  013B              	ERRMESSAGE 'the value 10of the argument exceeds the maxinum 263690'
 249  013B              	ENDIF
 249  013B              ;# 249 "C:\HT-3000\UC_F5660\UC_F5660_main.c" 1
 249  013B              	IF 10<0
 249  013B              ;# 249 "C:\HT-3000\UC_F5660\UC_F5660_main.c" 1
 249  013B              	ERRMESSAGE 'the value 10 of the argument exceeds the mininum 0'
 249  013B              	ENDIF
 249  013B              ;# 249 "C:\HT-3000\UC_F5660\UC_F5660_main.c" 1
 249  013B              	IF 10==0
 249  013B              ;# 249 "C:\HT-3000\UC_F5660\UC_F5660_main.c" 1
 249  013B              	JMP $
 249  013B              	ENDIF
 249  013B              ;# 249 "C:\HT-3000\UC_F5660\UC_F5660_main.c" 1
 249  013B              	IF (10>=1) AND (10<( 4 + __PBP__ * 2))
 249  013B              ;# 249 "C:\HT-3000\UC_F5660\UC_F5660_main.c" 1
 249  013B              	NOP
 249  013B              	ENDIF
 249  013B              ;# 249 "C:\HT-3000\UC_F5660\UC_F5660_main.c" 1
 249  013B              	IF (10>=2) AND (10<( 4 + __PBP__ * 2))
 249  013B              ;# 249 "C:\HT-3000\UC_F5660\UC_F5660_main.c" 1
 249  013B              	NOP
 249  013B              	ENDIF
 249  013B              ;# 249 "C:\HT-3000\UC_F5660\UC_F5660_main.c" 1
 249  013B              	IF (10>=3) AND (10<( 4 + __PBP__ * 2))
 249  013B              ;# 249 "C:\HT-3000\UC_F5660\UC_F5660_main.c" 1
 249  013B              	NOP
 249  013B              	ENDIF
 249  013B              ;# 249 "C:\HT-3000\UC_F5660\UC_F5660_main.c" 1
 249  013B              	IF (10>=4) AND (10<( 4 + __PBP__ * 2)) AND ( __PBP__ > 0 )
 249  013B              ;# 249 "C:\HT-3000\UC_F5660\UC_F5660_main.c" 1
 249  013B              	NOP
 249  013B              	ENDIF
 249  013B              ;# 249 "C:\HT-3000\UC_F5660\UC_F5660_main.c" 1
 249  013B              	IF (10>=5) AND (10<( 4 + __PBP__ * 2)) AND ( __PBP__ > 0 )
 249  013B              ;# 249 "C:\HT-3000\UC_F5660\UC_F5660_main.c" 1
 249  013B              	NOP
 249  013B              	ENDIF
 249  013B              ;# 249 "C:\HT-3000\UC_F5660\UC_F5660_main.c" 1
 249  013B              	IF (10>=6) AND (10<( 4 + __PBP__ * 2))  AND ( __PBP__ > 1 )
 249  013B              ;# 249 "C:\HT-3000\UC_F5660\UC_F5660_main.c" 1
 249  013B              	NOP
 249  013B              	ENDIF
 249  013B              ;# 249 "C:\HT-3000\UC_F5660\UC_F5660_main.c" 1
 249  013B              	IF (10>=7) AND (10<( 4 + __PBP__ * 2))  AND ( __PBP__ > 1 )
 249  013B              ;# 249 "C:\HT-3000\UC_F5660\UC_F5660_main.c" 1
 249  013B              	NOP
 249  013B              	ENDIF
 249  013B              ;# 249 "C:\HT-3000\UC_F5660\UC_F5660_main.c" 1
 249  013B              	IF (10>=8) AND (10<( 4 + __PBP__ * 2))  AND ( __PBP__ > 2 )
 249  013B              ;# 249 "C:\HT-3000\UC_F5660\UC_F5660_main.c" 1
 249  013B              	NOP
 249  013B              	ENDIF
"File: UC_F5660_main.c  Assembler  Version HGASM0202      Page 22

 249  013B              ;# 249 "C:\HT-3000\UC_F5660\UC_F5660_main.c" 1
 249  013B              	IF (10==9)  AND ( __PBP__ > 2 )
 249  013B              ;# 249 "C:\HT-3000\UC_F5660\UC_F5660_main.c" 1
 249  013B              	NOP
 249  013B              	ENDIF
 249  013B              ;# 249 "C:\HT-3000\UC_F5660\UC_F5660_main.c" 1
 249  013B              	IF (10< ( 8 + __PBP__ * 2)) AND (10>( 3 + __PBP__ * 2))
 249  013B              ;# 249 "C:\HT-3000\UC_F5660\UC_F5660_main.c" 1
 249  013B              	fcall __DELAY3 + ( 7 + __PBP__ * 2) -10
 249  013B              	ENDIF
 249  013B              ;# 249 "C:\HT-3000\UC_F5660\UC_F5660_main.c" 1
 249  013B              	IF (10< ( 0404h + __PBP__ * 2)) AND (10>( 7 + __PBP__ * 2))
 249  013B              ;# 249 "C:\HT-3000\UC_F5660\UC_F5660_main.c" 1
 249  013B  0F01        	MOV A,(10-( 4 + __PBP__ * 2))/4
 249  013C              ;# 249 "C:\HT-3000\UC_F5660\UC_F5660_main.c" 1
 249  013C              	fcall __DELAYX3 + 3 -((10-( 4 + __PBP__ * 2)) MOD 4) 
 249  0143              	ENDIF
 249  0143              ;# 249 "C:\HT-3000\UC_F5660\UC_F5660_main.c" 1
 249  0143              	IF (10< ( 040bh + __PBP__ * 2)) AND (10> ( 0403h + __PBP__ * 2))
 249  0143              ;# 249 "C:\HT-3000\UC_F5660\UC_F5660_main.c" 1
 249  0143              	MOV A,0 
 249  0143              ;# 249 "C:\HT-3000\UC_F5660\UC_F5660_main.c" 1
 249  0143              	fcall __DELAYX6 + ( 040ah + __PBP__ * 2) -10
 249  0143              	ENDIF
 249  0143              ;# 249 "C:\HT-3000\UC_F5660\UC_F5660_main.c" 1
 249  0143              	IF (10 >= ( 040bh + __PBP__ * 2)) AND ((((10-( 9 + __PBP__ * 2))%0402h)/4+1)>256)
 249  0143              ;# 249 "C:\HT-3000\UC_F5660\UC_F5660_main.c" 1
 249  0143              	MOV A,(10-( 9 + __PBP__ * 2))/0402h
 249  0143              ;# 249 "C:\HT-3000\UC_F5660\UC_F5660_main.c" 1
 249  0143              	MOV _builtin_holtek_delay_2,A
 249  0143              ;# 249 "C:\HT-3000\UC_F5660\UC_F5660_main.c" 1
 249  0143              	MOV A,0
 249  0143              ;# 249 "C:\HT-3000\UC_F5660\UC_F5660_main.c" 1
 249  0143              	fcall __DELAYY5 +5- (((10-( 9 + __PBP__ * 2))%0402h)%6) 
 249  0143              	ENDIF
 249  0143              ;# 249 "C:\HT-3000\UC_F5660\UC_F5660_main.c" 1
 249  0143              	IF (10 >= ( 040bh + __PBP__ * 2)) AND ((((10-( 9 + __PBP__ * 2))%0402h)/4+1)<=256)
 249  0143              ;# 249 "C:\HT-3000\UC_F5660\UC_F5660_main.c" 1
 249  0143              	MOV A,(10-( 9 + __PBP__ * 2))/0402h
 249  0143              ;# 249 "C:\HT-3000\UC_F5660\UC_F5660_main.c" 1
 249  0143              	MOV _builtin_holtek_delay_2,A
 249  0143              ;# 249 "C:\HT-3000\UC_F5660\UC_F5660_main.c" 1
 249  0143              	MOV A,((10-( 9 + __PBP__ * 2))%0402h)/4+1
 249  0143              ;# 249 "C:\HT-3000\UC_F5660\UC_F5660_main.c" 1
 249  0143              	fcall __DELAYY3 +3-(((10-( 9 + __PBP__ * 2))%0402h)%4) 
 249  0143              	ENDIF
 249  0143  0003        	ret
 249  0144              _init_HT16K33 endp
 249  0144              #line 249 "C:\HT-3000\UC_F5660\UC_F5660_main.c"
 249  0144              #pragma debug scope 1 1
 249  0144              public _show
 249  0144              #pragma debug scope 4 1
 267  0144              #line 267 "C:\HT-3000\UC_F5660\UC_F5660_main.c"
 267  0000              _show .section 'code'
 267  0000              _show proc
 267  0000  0004[           local _show_2 db 4 dup(?)	; 0,4
            00
            ]
 268  0004              #line 268 "C:\HT-3000\UC_F5660\UC_F5660_main.c"
 268  0000  0F05        	mov a,5
"File: UC_F5660_main.c  Assembler  Version HGASM0202      Page 23

 268  0001  0080     R  	mov _CheckAddressCnt[0],a
 268  0002              _L45:
 269  0002              #line 269 "C:\HT-3000\UC_F5660\UC_F5660_main.c"
 269  0002  1E00     R  	snz _CheckAddressCnt[0]
 269  0003  2800     R  	jmp _L59
 272  0004              #line 272 "C:\HT-3000\UC_F5660\UC_F5660_main.c"
 272  0004              	fcall _i2c_start
 273  000B              #line 273 "C:\HT-3000\UC_F5660\UC_F5660_main.c"
 273  000B  0FE0        	mov a,224
 273  000C              	fcall _i2c_write
 274  0013              #line 274 "C:\HT-3000\UC_F5660\UC_F5660_main.c"
 274  0013              	fcall _i2c_read_ACK
 274  001A  0080     E  	mov ra,a
 274  001B  1080     E  	sz ra
 274  001C  2800     R  	jmp _L46
 276  001D              #line 276 "C:\HT-3000\UC_F5660\UC_F5660_main.c"
 276  001D  0F00        	mov a,0
 276  001E              	fcall _i2c_write
 277  0025              #line 277 "C:\HT-3000\UC_F5660\UC_F5660_main.c"
 277  0025              	fcall _i2c_read_ACK
 277  002C  0080     E  	mov ra,a
 277  002D  1080     E  	sz ra
 277  002E  2800     R  	jmp _L46
 277  002F  1F00     R  	clr _show_2[0]
 277  0030  1F00     R  	clr _show_2[1]
 277  0031              _L52:
 277  0031  340A        	clr c
 277  0032  1A00     R  	rlca _show_2[0]
 277  0033  0080     E  	mov rb,a
 277  0034  1A00     R  	rlca _show_2[1]
 277  0035  0080     E  	mov rc,a
 277  0036  0F00     R  	mov a,low offset _display_Buffer
 277  0037  0300     E  	add a,rb
 277  0038  0080     R  	mov _show_2[2],a
 277  0039  0F00     R  	mov a,high offset _display_Buffer
 277  003A  1300     E  	adc a,rc
 277  003B  0080     R  	mov _show_2[3],a
 277  003C              #pragma debug scope 5 4
 277  003C              ;begin block, line: 277.-1
 277  003C              #pragma debug variable 11 5 _show_2+0 "i"
 282  003C              #line 282 "C:\HT-3000\UC_F5660\UC_F5660_main.c"
 282  003C  0700     R  	mov a,_show_2[2]
 282  003D  0083        	mov mp,a
 282  003E  0700     R  	mov a,_show_2[3]
 282  003F  0084        	mov sbp,a
 282  0040              	fcall _Crom2Prom
 282  0047  0080     E  	mov rb,a
 282  0048              	fcall _Crom2PromNext
 282  004F  0080     E  	mov rc,a
 282  0050  0700     E  	mov a,rc
 282  0051              	fcall _i2c_write
 283  0058              #line 283 "C:\HT-3000\UC_F5660\UC_F5660_main.c"
 283  0058              	fcall _i2c_read_ACK
 283  005F  0080     E  	mov ra,a
 283  0060  1080     E  	sz ra
 283  0061  2800     R  	jmp _L46
 285  0062              #line 285 "C:\HT-3000\UC_F5660\UC_F5660_main.c"
 285  0062  0700     R  	mov a,_show_2[2]
 285  0063  0083        	mov mp,a
 285  0064  0700     R  	mov a,_show_2[3]
"File: UC_F5660_main.c  Assembler  Version HGASM0202      Page 24

 285  0065  0084        	mov sbp,a
 285  0066              	fcall _Crom2Prom
 285  006D              	fcall _i2c_write
 286  0074              #line 286 "C:\HT-3000\UC_F5660\UC_F5660_main.c"
 286  0074              	fcall _i2c_read_ACK
 286  007B  0080     E  	mov ra,a
 286  007C  1080     E  	sz ra
 286  007D  2800     R  	jmp _L46
 288  007E              #line 288 "C:\HT-3000\UC_F5660\UC_F5660_main.c"
 288  007E  0700     R  	mov a,_show_2[0]
 288  007F  0C07        	xor a,7
 288  0080  0500     R  	or a,_show_2[1]
 288  0081  390A        	snz z
 288  0082  2800     R  	jmp _L50
 290  0083              #line 290 "C:\HT-3000\UC_F5660\UC_F5660_main.c"
 290  0083              	fcall _i2c_stop
 291  008A              #line 291 "C:\HT-3000\UC_F5660\UC_F5660_main.c"
 291  008A  2800     R  	jmp _L44
 291  008B              _L50:
 280  008B              #line 280 "C:\HT-3000\UC_F5660\UC_F5660_main.c"
 280  008B  1480     R  	inc _show_2[0]
 280  008C  3D0A        	sz z
 280  008D  1480     R  	inc _show_2[1]
 280  008E  2800     R  	jmp _L52
 280  008F              _L46:
 280  008F              #pragma debug scope 4 1
 318  008F              #line 318 "C:\HT-3000\UC_F5660\UC_F5660_main.c"
 318  008F              	fcall _i2c_stop
 319  0096              #line 319 "C:\HT-3000\UC_F5660\UC_F5660_main.c"
 319  0096              ;# 319 "C:\HT-3000\UC_F5660\UC_F5660_main.c" 1
 319  0096              	IF 10>263690
 319  0096              ;# 319 "C:\HT-3000\UC_F5660\UC_F5660_main.c" 1
 319  0096              	ERRMESSAGE 'the value 10of the argument exceeds the maxinum 263690'
 319  0096              	ENDIF
 319  0096              ;# 319 "C:\HT-3000\UC_F5660\UC_F5660_main.c" 1
 319  0096              	IF 10<0
 319  0096              ;# 319 "C:\HT-3000\UC_F5660\UC_F5660_main.c" 1
 319  0096              	ERRMESSAGE 'the value 10 of the argument exceeds the mininum 0'
 319  0096              	ENDIF
 319  0096              ;# 319 "C:\HT-3000\UC_F5660\UC_F5660_main.c" 1
 319  0096              	IF 10==0
 319  0096              ;# 319 "C:\HT-3000\UC_F5660\UC_F5660_main.c" 1
 319  0096              	JMP $
 319  0096              	ENDIF
 319  0096              ;# 319 "C:\HT-3000\UC_F5660\UC_F5660_main.c" 1
 319  0096              	IF (10>=1) AND (10<( 4 + __PBP__ * 2))
 319  0096              ;# 319 "C:\HT-3000\UC_F5660\UC_F5660_main.c" 1
 319  0096              	NOP
 319  0096              	ENDIF
 319  0096              ;# 319 "C:\HT-3000\UC_F5660\UC_F5660_main.c" 1
 319  0096              	IF (10>=2) AND (10<( 4 + __PBP__ * 2))
 319  0096              ;# 319 "C:\HT-3000\UC_F5660\UC_F5660_main.c" 1
 319  0096              	NOP
 319  0096              	ENDIF
 319  0096              ;# 319 "C:\HT-3000\UC_F5660\UC_F5660_main.c" 1
 319  0096              	IF (10>=3) AND (10<( 4 + __PBP__ * 2))
 319  0096              ;# 319 "C:\HT-3000\UC_F5660\UC_F5660_main.c" 1
 319  0096              	NOP
 319  0096              	ENDIF
 319  0096              ;# 319 "C:\HT-3000\UC_F5660\UC_F5660_main.c" 1
"File: UC_F5660_main.c  Assembler  Version HGASM0202      Page 25

 319  0096              	IF (10>=4) AND (10<( 4 + __PBP__ * 2)) AND ( __PBP__ > 0 )
 319  0096              ;# 319 "C:\HT-3000\UC_F5660\UC_F5660_main.c" 1
 319  0096              	NOP
 319  0096              	ENDIF
 319  0096              ;# 319 "C:\HT-3000\UC_F5660\UC_F5660_main.c" 1
 319  0096              	IF (10>=5) AND (10<( 4 + __PBP__ * 2)) AND ( __PBP__ > 0 )
 319  0096              ;# 319 "C:\HT-3000\UC_F5660\UC_F5660_main.c" 1
 319  0096              	NOP
 319  0096              	ENDIF
 319  0096              ;# 319 "C:\HT-3000\UC_F5660\UC_F5660_main.c" 1
 319  0096              	IF (10>=6) AND (10<( 4 + __PBP__ * 2))  AND ( __PBP__ > 1 )
 319  0096              ;# 319 "C:\HT-3000\UC_F5660\UC_F5660_main.c" 1
 319  0096              	NOP
 319  0096              	ENDIF
 319  0096              ;# 319 "C:\HT-3000\UC_F5660\UC_F5660_main.c" 1
 319  0096              	IF (10>=7) AND (10<( 4 + __PBP__ * 2))  AND ( __PBP__ > 1 )
 319  0096              ;# 319 "C:\HT-3000\UC_F5660\UC_F5660_main.c" 1
 319  0096              	NOP
 319  0096              	ENDIF
 319  0096              ;# 319 "C:\HT-3000\UC_F5660\UC_F5660_main.c" 1
 319  0096              	IF (10>=8) AND (10<( 4 + __PBP__ * 2))  AND ( __PBP__ > 2 )
 319  0096              ;# 319 "C:\HT-3000\UC_F5660\UC_F5660_main.c" 1
 319  0096              	NOP
 319  0096              	ENDIF
 319  0096              ;# 319 "C:\HT-3000\UC_F5660\UC_F5660_main.c" 1
 319  0096              	IF (10==9)  AND ( __PBP__ > 2 )
 319  0096              ;# 319 "C:\HT-3000\UC_F5660\UC_F5660_main.c" 1
 319  0096              	NOP
 319  0096              	ENDIF
 319  0096              ;# 319 "C:\HT-3000\UC_F5660\UC_F5660_main.c" 1
 319  0096              	IF (10< ( 8 + __PBP__ * 2)) AND (10>( 3 + __PBP__ * 2))
 319  0096              ;# 319 "C:\HT-3000\UC_F5660\UC_F5660_main.c" 1
 319  0096              	fcall __DELAY3 + ( 7 + __PBP__ * 2) -10
 319  0096              	ENDIF
 319  0096              ;# 319 "C:\HT-3000\UC_F5660\UC_F5660_main.c" 1
 319  0096              	IF (10< ( 0404h + __PBP__ * 2)) AND (10>( 7 + __PBP__ * 2))
 319  0096              ;# 319 "C:\HT-3000\UC_F5660\UC_F5660_main.c" 1
 319  0096  0F01        	MOV A,(10-( 4 + __PBP__ * 2))/4
 319  0097              ;# 319 "C:\HT-3000\UC_F5660\UC_F5660_main.c" 1
 319  0097              	fcall __DELAYX3 + 3 -((10-( 4 + __PBP__ * 2)) MOD 4) 
 319  009E              	ENDIF
 319  009E              ;# 319 "C:\HT-3000\UC_F5660\UC_F5660_main.c" 1
 319  009E              	IF (10< ( 040bh + __PBP__ * 2)) AND (10> ( 0403h + __PBP__ * 2))
 319  009E              ;# 319 "C:\HT-3000\UC_F5660\UC_F5660_main.c" 1
 319  009E              	MOV A,0 
 319  009E              ;# 319 "C:\HT-3000\UC_F5660\UC_F5660_main.c" 1
 319  009E              	fcall __DELAYX6 + ( 040ah + __PBP__ * 2) -10
 319  009E              	ENDIF
 319  009E              ;# 319 "C:\HT-3000\UC_F5660\UC_F5660_main.c" 1
 319  009E              	IF (10 >= ( 040bh + __PBP__ * 2)) AND ((((10-( 9 + __PBP__ * 2))%0402h)/4+1)>256)
 319  009E              ;# 319 "C:\HT-3000\UC_F5660\UC_F5660_main.c" 1
 319  009E              	MOV A,(10-( 9 + __PBP__ * 2))/0402h
 319  009E              ;# 319 "C:\HT-3000\UC_F5660\UC_F5660_main.c" 1
 319  009E              	MOV _builtin_holtek_delay_2,A
 319  009E              ;# 319 "C:\HT-3000\UC_F5660\UC_F5660_main.c" 1
 319  009E              	MOV A,0
 319  009E              ;# 319 "C:\HT-3000\UC_F5660\UC_F5660_main.c" 1
 319  009E              	fcall __DELAYY5 +5- (((10-( 9 + __PBP__ * 2))%0402h)%6) 
 319  009E              	ENDIF
 319  009E              ;# 319 "C:\HT-3000\UC_F5660\UC_F5660_main.c" 1
"File: UC_F5660_main.c  Assembler  Version HGASM0202      Page 26

 319  009E              	IF (10 >= ( 040bh + __PBP__ * 2)) AND ((((10-( 9 + __PBP__ * 2))%0402h)/4+1)<=256)
 319  009E              ;# 319 "C:\HT-3000\UC_F5660\UC_F5660_main.c" 1
 319  009E              	MOV A,(10-( 9 + __PBP__ * 2))/0402h
 319  009E              ;# 319 "C:\HT-3000\UC_F5660\UC_F5660_main.c" 1
 319  009E              	MOV _builtin_holtek_delay_2,A
 319  009E              ;# 319 "C:\HT-3000\UC_F5660\UC_F5660_main.c" 1
 319  009E              	MOV A,((10-( 9 + __PBP__ * 2))%0402h)/4+1
 319  009E              ;# 319 "C:\HT-3000\UC_F5660\UC_F5660_main.c" 1
 319  009E              	fcall __DELAYY3 +3-(((10-( 9 + __PBP__ * 2))%0402h)%4) 
 319  009E              	ENDIF
 320  009E              #line 320 "C:\HT-3000\UC_F5660\UC_F5660_main.c"
 320  009E  1580     R  	dec _CheckAddressCnt[0]
 321  009F              #line 321 "C:\HT-3000\UC_F5660\UC_F5660_main.c"
 321  009F  2800     R  	jmp _L45
 321  00A0              _L59:
 325  00A0              #line 325 "C:\HT-3000\UC_F5660\UC_F5660_main.c"
 325  00A0              ;# 325 "C:\HT-3000\UC_F5660\UC_F5660_main.c" 1
 325  00A0              	IF 10>263690
 325  00A0              ;# 325 "C:\HT-3000\UC_F5660\UC_F5660_main.c" 1
 325  00A0              	ERRMESSAGE 'the value 10of the argument exceeds the maxinum 263690'
 325  00A0              	ENDIF
 325  00A0              ;# 325 "C:\HT-3000\UC_F5660\UC_F5660_main.c" 1
 325  00A0              	IF 10<0
 325  00A0              ;# 325 "C:\HT-3000\UC_F5660\UC_F5660_main.c" 1
 325  00A0              	ERRMESSAGE 'the value 10 of the argument exceeds the mininum 0'
 325  00A0              	ENDIF
 325  00A0              ;# 325 "C:\HT-3000\UC_F5660\UC_F5660_main.c" 1
 325  00A0              	IF 10==0
 325  00A0              ;# 325 "C:\HT-3000\UC_F5660\UC_F5660_main.c" 1
 325  00A0              	JMP $
 325  00A0              	ENDIF
 325  00A0              ;# 325 "C:\HT-3000\UC_F5660\UC_F5660_main.c" 1
 325  00A0              	IF (10>=1) AND (10<( 4 + __PBP__ * 2))
 325  00A0              ;# 325 "C:\HT-3000\UC_F5660\UC_F5660_main.c" 1
 325  00A0              	NOP
 325  00A0              	ENDIF
 325  00A0              ;# 325 "C:\HT-3000\UC_F5660\UC_F5660_main.c" 1
 325  00A0              	IF (10>=2) AND (10<( 4 + __PBP__ * 2))
 325  00A0              ;# 325 "C:\HT-3000\UC_F5660\UC_F5660_main.c" 1
 325  00A0              	NOP
 325  00A0              	ENDIF
 325  00A0              ;# 325 "C:\HT-3000\UC_F5660\UC_F5660_main.c" 1
 325  00A0              	IF (10>=3) AND (10<( 4 + __PBP__ * 2))
 325  00A0              ;# 325 "C:\HT-3000\UC_F5660\UC_F5660_main.c" 1
 325  00A0              	NOP
 325  00A0              	ENDIF
 325  00A0              ;# 325 "C:\HT-3000\UC_F5660\UC_F5660_main.c" 1
 325  00A0              	IF (10>=4) AND (10<( 4 + __PBP__ * 2)) AND ( __PBP__ > 0 )
 325  00A0              ;# 325 "C:\HT-3000\UC_F5660\UC_F5660_main.c" 1
 325  00A0              	NOP
 325  00A0              	ENDIF
 325  00A0              ;# 325 "C:\HT-3000\UC_F5660\UC_F5660_main.c" 1
 325  00A0              	IF (10>=5) AND (10<( 4 + __PBP__ * 2)) AND ( __PBP__ > 0 )
 325  00A0              ;# 325 "C:\HT-3000\UC_F5660\UC_F5660_main.c" 1
 325  00A0              	NOP
 325  00A0              	ENDIF
 325  00A0              ;# 325 "C:\HT-3000\UC_F5660\UC_F5660_main.c" 1
 325  00A0              	IF (10>=6) AND (10<( 4 + __PBP__ * 2))  AND ( __PBP__ > 1 )
 325  00A0              ;# 325 "C:\HT-3000\UC_F5660\UC_F5660_main.c" 1
 325  00A0              	NOP
"File: UC_F5660_main.c  Assembler  Version HGASM0202      Page 27

 325  00A0              	ENDIF
 325  00A0              ;# 325 "C:\HT-3000\UC_F5660\UC_F5660_main.c" 1
 325  00A0              	IF (10>=7) AND (10<( 4 + __PBP__ * 2))  AND ( __PBP__ > 1 )
 325  00A0              ;# 325 "C:\HT-3000\UC_F5660\UC_F5660_main.c" 1
 325  00A0              	NOP
 325  00A0              	ENDIF
 325  00A0              ;# 325 "C:\HT-3000\UC_F5660\UC_F5660_main.c" 1
 325  00A0              	IF (10>=8) AND (10<( 4 + __PBP__ * 2))  AND ( __PBP__ > 2 )
 325  00A0              ;# 325 "C:\HT-3000\UC_F5660\UC_F5660_main.c" 1
 325  00A0              	NOP
 325  00A0              	ENDIF
 325  00A0              ;# 325 "C:\HT-3000\UC_F5660\UC_F5660_main.c" 1
 325  00A0              	IF (10==9)  AND ( __PBP__ > 2 )
 325  00A0              ;# 325 "C:\HT-3000\UC_F5660\UC_F5660_main.c" 1
 325  00A0              	NOP
 325  00A0              	ENDIF
 325  00A0              ;# 325 "C:\HT-3000\UC_F5660\UC_F5660_main.c" 1
 325  00A0              	IF (10< ( 8 + __PBP__ * 2)) AND (10>( 3 + __PBP__ * 2))
 325  00A0              ;# 325 "C:\HT-3000\UC_F5660\UC_F5660_main.c" 1
 325  00A0              	fcall __DELAY3 + ( 7 + __PBP__ * 2) -10
 325  00A0              	ENDIF
 325  00A0              ;# 325 "C:\HT-3000\UC_F5660\UC_F5660_main.c" 1
 325  00A0              	IF (10< ( 0404h + __PBP__ * 2)) AND (10>( 7 + __PBP__ * 2))
 325  00A0              ;# 325 "C:\HT-3000\UC_F5660\UC_F5660_main.c" 1
 325  00A0  0F01        	MOV A,(10-( 4 + __PBP__ * 2))/4
 325  00A1              ;# 325 "C:\HT-3000\UC_F5660\UC_F5660_main.c" 1
 325  00A1              	fcall __DELAYX3 + 3 -((10-( 4 + __PBP__ * 2)) MOD 4) 
 325  00A8              	ENDIF
 325  00A8              ;# 325 "C:\HT-3000\UC_F5660\UC_F5660_main.c" 1
 325  00A8              	IF (10< ( 040bh + __PBP__ * 2)) AND (10> ( 0403h + __PBP__ * 2))
 325  00A8              ;# 325 "C:\HT-3000\UC_F5660\UC_F5660_main.c" 1
 325  00A8              	MOV A,0 
 325  00A8              ;# 325 "C:\HT-3000\UC_F5660\UC_F5660_main.c" 1
 325  00A8              	fcall __DELAYX6 + ( 040ah + __PBP__ * 2) -10
 325  00A8              	ENDIF
 325  00A8              ;# 325 "C:\HT-3000\UC_F5660\UC_F5660_main.c" 1
 325  00A8              	IF (10 >= ( 040bh + __PBP__ * 2)) AND ((((10-( 9 + __PBP__ * 2))%0402h)/4+1)>256)
 325  00A8              ;# 325 "C:\HT-3000\UC_F5660\UC_F5660_main.c" 1
 325  00A8              	MOV A,(10-( 9 + __PBP__ * 2))/0402h
 325  00A8              ;# 325 "C:\HT-3000\UC_F5660\UC_F5660_main.c" 1
 325  00A8              	MOV _builtin_holtek_delay_2,A
 325  00A8              ;# 325 "C:\HT-3000\UC_F5660\UC_F5660_main.c" 1
 325  00A8              	MOV A,0
 325  00A8              ;# 325 "C:\HT-3000\UC_F5660\UC_F5660_main.c" 1
 325  00A8              	fcall __DELAYY5 +5- (((10-( 9 + __PBP__ * 2))%0402h)%6) 
 325  00A8              	ENDIF
 325  00A8              ;# 325 "C:\HT-3000\UC_F5660\UC_F5660_main.c" 1
 325  00A8              	IF (10 >= ( 040bh + __PBP__ * 2)) AND ((((10-( 9 + __PBP__ * 2))%0402h)/4+1)<=256)
 325  00A8              ;# 325 "C:\HT-3000\UC_F5660\UC_F5660_main.c" 1
 325  00A8              	MOV A,(10-( 9 + __PBP__ * 2))/0402h
 325  00A8              ;# 325 "C:\HT-3000\UC_F5660\UC_F5660_main.c" 1
 325  00A8              	MOV _builtin_holtek_delay_2,A
 325  00A8              ;# 325 "C:\HT-3000\UC_F5660\UC_F5660_main.c" 1
 325  00A8              	MOV A,((10-( 9 + __PBP__ * 2))%0402h)/4+1
 325  00A8              ;# 325 "C:\HT-3000\UC_F5660\UC_F5660_main.c" 1
 325  00A8              	fcall __DELAYY3 +3-(((10-( 9 + __PBP__ * 2))%0402h)%4) 
 325  00A8              	ENDIF
 325  00A8              _L44:
 325  00A8  0003        	ret
 325  00A9              _show endp
"File: UC_F5660_main.c  Assembler  Version HGASM0202      Page 28

 325  00A9              #line 325 "C:\HT-3000\UC_F5660\UC_F5660_main.c"
 325  00A9              #pragma debug scope 1 1
 325  00A9              public _LED_all_TURN_ON
 325  00A9              #pragma debug scope 6 1
  54  00A9              #line 54 "C:\HT-3000\UC_F5660\UC_F5660_main.c"
  54  0000              _LED_all_TURN_ON .section 'code'
  54  0000              _LED_all_TURN_ON proc
  55  0000              #line 55 "C:\HT-3000\UC_F5660\UC_F5660_main.c"
  55  0000  0F01        	mov a,1
  55  0001  0080     R  	mov _display_Buffer[0],a
  55  0002  0F7F        	mov a,127
  55  0003  0080     R  	mov _display_Buffer[1],a
  56  0004              #line 56 "C:\HT-3000\UC_F5660\UC_F5660_main.c"
  56  0004  0F01        	mov a,1
  56  0005  0080     R  	mov _display_Buffer[2],a
  56  0006  0F7F        	mov a,127
  56  0007  0080     R  	mov _display_Buffer[3],a
  57  0008              #line 57 "C:\HT-3000\UC_F5660\UC_F5660_main.c"
  57  0008  0F01        	mov a,1
  57  0009  0080     R  	mov _display_Buffer[4],a
  57  000A  0F7F        	mov a,127
  57  000B  0080     R  	mov _display_Buffer[5],a
  58  000C              #line 58 "C:\HT-3000\UC_F5660\UC_F5660_main.c"
  58  000C  0F01        	mov a,1
  58  000D  0080     R  	mov _display_Buffer[6],a
  58  000E  0F7F        	mov a,127
  58  000F  0080     R  	mov _display_Buffer[7],a
  59  0010              #line 59 "C:\HT-3000\UC_F5660\UC_F5660_main.c"
  59  0010  0F01        	mov a,1
  59  0011  0080     R  	mov _display_Buffer[8],a
  59  0012  0F7F        	mov a,127
  59  0013  0080     R  	mov _display_Buffer[9],a
  60  0014              #line 60 "C:\HT-3000\UC_F5660\UC_F5660_main.c"
  60  0014  0F01        	mov a,1
  60  0015  0080     R  	mov _display_Buffer[10],a
  60  0016  0F7F        	mov a,127
  60  0017  0080     R  	mov _display_Buffer[11],a
  62  0018              #line 62 "C:\HT-3000\UC_F5660\UC_F5660_main.c"
  62  0018              	fcall _show
  62  001F  0003        	ret
  62  0020              _LED_all_TURN_ON endp
  62  0020              #line 62 "C:\HT-3000\UC_F5660\UC_F5660_main.c"
  62  0020              #pragma debug scope 1 1
  62  0020              public _HT16K33_LED_RAM_Clear
  62  0020              #pragma debug scope 7 1
 254  0020              #line 254 "C:\HT-3000\UC_F5660\UC_F5660_main.c"
 254  0000              _HT16K33_LED_RAM_Clear .section 'code'
 254  0000              _HT16K33_LED_RAM_Clear proc
 256  0000              #line 256 "C:\HT-3000\UC_F5660\UC_F5660_main.c"
 256  0000  1F00     E  	clr rb
 256  0001  1F00     E  	clr rc
 256  0002              _L63:
 256  0002  340A        	clr c
 256  0003  1A00     E  	rlca rb
 256  0004  0080     E  	mov rd,a
 256  0005  1A00     E  	rlca rc
 256  0006  0080     E  	mov re,a
 258  0007              #line 258 "C:\HT-3000\UC_F5660\UC_F5660_main.c"
 258  0007  0F00     R  	mov a,low offset _display_Buffer
 258  0008  0300     E  	add a,rd
"File: UC_F5660_main.c  Assembler  Version HGASM0202      Page 29

 258  0009  0083        	mov mp,a
 258  000A  0F00     R  	mov a,high offset _display_Buffer
 258  000B  1300     E  	adc a,re
 258  000C  0084        	mov sbp,a
 258  000D  1F02        	clr ir
 258  000E  1483        	inc mp
 258  000F  1F02        	clr ir
 256  0010              #line 256 "C:\HT-3000\UC_F5660\UC_F5660_main.c"
 256  0010  1480     E  	inc rb
 256  0011  3D0A        	sz z
 256  0012  1480     E  	inc rc
 256  0013  0700     E  	mov a,rb
 256  0014  0C08        	xor a,8
 256  0015  0500     E  	or a,rc
 256  0016  390A        	snz z
 256  0017  2800     R  	jmp _L63
 261  0018              #line 261 "C:\HT-3000\UC_F5660\UC_F5660_main.c"
 261  0018              	fcall _show
 261  001F  0003        	ret
 261  0020              _HT16K33_LED_RAM_Clear endp
 261  0020              #line 261 "C:\HT-3000\UC_F5660\UC_F5660_main.c"
 261  0020              #pragma debug scope 1 1
 261  0020              public _blank
 261  0020              #pragma debug scope 8 1
 330  0020              #line 330 "C:\HT-3000\UC_F5660\UC_F5660_main.c"
 330  0000              _blank .section 'code'
 330  0000              _blank proc
 331  0000              #line 331 "C:\HT-3000\UC_F5660\UC_F5660_main.c"
 331  0000  0F05        	mov a,5
 331  0001  0080     R  	mov _CheckAddressCnt[0],a
 331  0002              _L65:
 333  0002              #line 333 "C:\HT-3000\UC_F5660\UC_F5660_main.c"
 333  0002  1E00     R  	snz _CheckAddressCnt[0]
 333  0003  2800     R  	jmp _L68
 336  0004              #line 336 "C:\HT-3000\UC_F5660\UC_F5660_main.c"
 336  0004              	fcall _i2c_start
 337  000B              #line 337 "C:\HT-3000\UC_F5660\UC_F5660_main.c"
 337  000B  0FE0        	mov a,224
 337  000C              	fcall _i2c_write
 338  0013              #line 338 "C:\HT-3000\UC_F5660\UC_F5660_main.c"
 338  0013              	fcall _i2c_read_ACK
 338  001A  0080     E  	mov ra,a
 338  001B  1080     E  	sz ra
 338  001C  2800     R  	jmp _L66
 341  001D              #line 341 "C:\HT-3000\UC_F5660\UC_F5660_main.c"
 341  001D  0F81        	mov a,129
 341  001E              	fcall _i2c_write
 342  0025              #line 342 "C:\HT-3000\UC_F5660\UC_F5660_main.c"
 342  0025              	fcall _i2c_read_ACK
 342  002C  0080     E  	mov ra,a
 342  002D  1080     E  	sz ra
 342  002E  2800     R  	jmp _L66
 344  002F              #line 344 "C:\HT-3000\UC_F5660\UC_F5660_main.c"
 344  002F              	fcall _i2c_stop
 345  0036              #line 345 "C:\HT-3000\UC_F5660\UC_F5660_main.c"
 345  0036  2800     R  	jmp _L68
 345  0037              _L66:
 354  0037              #line 354 "C:\HT-3000\UC_F5660\UC_F5660_main.c"
 354  0037              	fcall _i2c_stop
 355  003E              #line 355 "C:\HT-3000\UC_F5660\UC_F5660_main.c"
"File: UC_F5660_main.c  Assembler  Version HGASM0202      Page 30

 355  003E              ;# 355 "C:\HT-3000\UC_F5660\UC_F5660_main.c" 1
 355  003E              	IF 10>263690
 355  003E              ;# 355 "C:\HT-3000\UC_F5660\UC_F5660_main.c" 1
 355  003E              	ERRMESSAGE 'the value 10of the argument exceeds the maxinum 263690'
 355  003E              	ENDIF
 355  003E              ;# 355 "C:\HT-3000\UC_F5660\UC_F5660_main.c" 1
 355  003E              	IF 10<0
 355  003E              ;# 355 "C:\HT-3000\UC_F5660\UC_F5660_main.c" 1
 355  003E              	ERRMESSAGE 'the value 10 of the argument exceeds the mininum 0'
 355  003E              	ENDIF
 355  003E              ;# 355 "C:\HT-3000\UC_F5660\UC_F5660_main.c" 1
 355  003E              	IF 10==0
 355  003E              ;# 355 "C:\HT-3000\UC_F5660\UC_F5660_main.c" 1
 355  003E              	JMP $
 355  003E              	ENDIF
 355  003E              ;# 355 "C:\HT-3000\UC_F5660\UC_F5660_main.c" 1
 355  003E              	IF (10>=1) AND (10<( 4 + __PBP__ * 2))
 355  003E              ;# 355 "C:\HT-3000\UC_F5660\UC_F5660_main.c" 1
 355  003E              	NOP
 355  003E              	ENDIF
 355  003E              ;# 355 "C:\HT-3000\UC_F5660\UC_F5660_main.c" 1
 355  003E              	IF (10>=2) AND (10<( 4 + __PBP__ * 2))
 355  003E              ;# 355 "C:\HT-3000\UC_F5660\UC_F5660_main.c" 1
 355  003E              	NOP
 355  003E              	ENDIF
 355  003E              ;# 355 "C:\HT-3000\UC_F5660\UC_F5660_main.c" 1
 355  003E              	IF (10>=3) AND (10<( 4 + __PBP__ * 2))
 355  003E              ;# 355 "C:\HT-3000\UC_F5660\UC_F5660_main.c" 1
 355  003E              	NOP
 355  003E              	ENDIF
 355  003E              ;# 355 "C:\HT-3000\UC_F5660\UC_F5660_main.c" 1
 355  003E              	IF (10>=4) AND (10<( 4 + __PBP__ * 2)) AND ( __PBP__ > 0 )
 355  003E              ;# 355 "C:\HT-3000\UC_F5660\UC_F5660_main.c" 1
 355  003E              	NOP
 355  003E              	ENDIF
 355  003E              ;# 355 "C:\HT-3000\UC_F5660\UC_F5660_main.c" 1
 355  003E              	IF (10>=5) AND (10<( 4 + __PBP__ * 2)) AND ( __PBP__ > 0 )
 355  003E              ;# 355 "C:\HT-3000\UC_F5660\UC_F5660_main.c" 1
 355  003E              	NOP
 355  003E              	ENDIF
 355  003E              ;# 355 "C:\HT-3000\UC_F5660\UC_F5660_main.c" 1
 355  003E              	IF (10>=6) AND (10<( 4 + __PBP__ * 2))  AND ( __PBP__ > 1 )
 355  003E              ;# 355 "C:\HT-3000\UC_F5660\UC_F5660_main.c" 1
 355  003E              	NOP
 355  003E              	ENDIF
 355  003E              ;# 355 "C:\HT-3000\UC_F5660\UC_F5660_main.c" 1
 355  003E              	IF (10>=7) AND (10<( 4 + __PBP__ * 2))  AND ( __PBP__ > 1 )
 355  003E              ;# 355 "C:\HT-3000\UC_F5660\UC_F5660_main.c" 1
 355  003E              	NOP
 355  003E              	ENDIF
 355  003E              ;# 355 "C:\HT-3000\UC_F5660\UC_F5660_main.c" 1
 355  003E              	IF (10>=8) AND (10<( 4 + __PBP__ * 2))  AND ( __PBP__ > 2 )
 355  003E              ;# 355 "C:\HT-3000\UC_F5660\UC_F5660_main.c" 1
 355  003E              	NOP
 355  003E              	ENDIF
 355  003E              ;# 355 "C:\HT-3000\UC_F5660\UC_F5660_main.c" 1
 355  003E              	IF (10==9)  AND ( __PBP__ > 2 )
 355  003E              ;# 355 "C:\HT-3000\UC_F5660\UC_F5660_main.c" 1
 355  003E              	NOP
 355  003E              	ENDIF
"File: UC_F5660_main.c  Assembler  Version HGASM0202      Page 31

 355  003E              ;# 355 "C:\HT-3000\UC_F5660\UC_F5660_main.c" 1
 355  003E              	IF (10< ( 8 + __PBP__ * 2)) AND (10>( 3 + __PBP__ * 2))
 355  003E              ;# 355 "C:\HT-3000\UC_F5660\UC_F5660_main.c" 1
 355  003E              	fcall __DELAY3 + ( 7 + __PBP__ * 2) -10
 355  003E              	ENDIF
 355  003E              ;# 355 "C:\HT-3000\UC_F5660\UC_F5660_main.c" 1
 355  003E              	IF (10< ( 0404h + __PBP__ * 2)) AND (10>( 7 + __PBP__ * 2))
 355  003E              ;# 355 "C:\HT-3000\UC_F5660\UC_F5660_main.c" 1
 355  003E  0F01        	MOV A,(10-( 4 + __PBP__ * 2))/4
 355  003F              ;# 355 "C:\HT-3000\UC_F5660\UC_F5660_main.c" 1
 355  003F              	fcall __DELAYX3 + 3 -((10-( 4 + __PBP__ * 2)) MOD 4) 
 355  0046              	ENDIF
 355  0046              ;# 355 "C:\HT-3000\UC_F5660\UC_F5660_main.c" 1
 355  0046              	IF (10< ( 040bh + __PBP__ * 2)) AND (10> ( 0403h + __PBP__ * 2))
 355  0046              ;# 355 "C:\HT-3000\UC_F5660\UC_F5660_main.c" 1
 355  0046              	MOV A,0 
 355  0046              ;# 355 "C:\HT-3000\UC_F5660\UC_F5660_main.c" 1
 355  0046              	fcall __DELAYX6 + ( 040ah + __PBP__ * 2) -10
 355  0046              	ENDIF
 355  0046              ;# 355 "C:\HT-3000\UC_F5660\UC_F5660_main.c" 1
 355  0046              	IF (10 >= ( 040bh + __PBP__ * 2)) AND ((((10-( 9 + __PBP__ * 2))%0402h)/4+1)>256)
 355  0046              ;# 355 "C:\HT-3000\UC_F5660\UC_F5660_main.c" 1
 355  0046              	MOV A,(10-( 9 + __PBP__ * 2))/0402h
 355  0046              ;# 355 "C:\HT-3000\UC_F5660\UC_F5660_main.c" 1
 355  0046              	MOV _builtin_holtek_delay_2,A
 355  0046              ;# 355 "C:\HT-3000\UC_F5660\UC_F5660_main.c" 1
 355  0046              	MOV A,0
 355  0046              ;# 355 "C:\HT-3000\UC_F5660\UC_F5660_main.c" 1
 355  0046              	fcall __DELAYY5 +5- (((10-( 9 + __PBP__ * 2))%0402h)%6) 
 355  0046              	ENDIF
 355  0046              ;# 355 "C:\HT-3000\UC_F5660\UC_F5660_main.c" 1
 355  0046              	IF (10 >= ( 040bh + __PBP__ * 2)) AND ((((10-( 9 + __PBP__ * 2))%0402h)/4+1)<=256)
 355  0046              ;# 355 "C:\HT-3000\UC_F5660\UC_F5660_main.c" 1
 355  0046              	MOV A,(10-( 9 + __PBP__ * 2))/0402h
 355  0046              ;# 355 "C:\HT-3000\UC_F5660\UC_F5660_main.c" 1
 355  0046              	MOV _builtin_holtek_delay_2,A
 355  0046              ;# 355 "C:\HT-3000\UC_F5660\UC_F5660_main.c" 1
 355  0046              	MOV A,((10-( 9 + __PBP__ * 2))%0402h)/4+1
 355  0046              ;# 355 "C:\HT-3000\UC_F5660\UC_F5660_main.c" 1
 355  0046              	fcall __DELAYY3 +3-(((10-( 9 + __PBP__ * 2))%0402h)%4) 
 355  0046              	ENDIF
 356  0046              #line 356 "C:\HT-3000\UC_F5660\UC_F5660_main.c"
 356  0046  1580     R  	dec _CheckAddressCnt[0]
 357  0047              #line 357 "C:\HT-3000\UC_F5660\UC_F5660_main.c"
 357  0047  2800     R  	jmp _L65
 357  0048              _L68:
 361  0048              #line 361 "C:\HT-3000\UC_F5660\UC_F5660_main.c"
 361  0048              ;# 361 "C:\HT-3000\UC_F5660\UC_F5660_main.c" 1
 361  0048              	IF 10>263690
 361  0048              ;# 361 "C:\HT-3000\UC_F5660\UC_F5660_main.c" 1
 361  0048              	ERRMESSAGE 'the value 10of the argument exceeds the maxinum 263690'
 361  0048              	ENDIF
 361  0048              ;# 361 "C:\HT-3000\UC_F5660\UC_F5660_main.c" 1
 361  0048              	IF 10<0
 361  0048              ;# 361 "C:\HT-3000\UC_F5660\UC_F5660_main.c" 1
 361  0048              	ERRMESSAGE 'the value 10 of the argument exceeds the mininum 0'
 361  0048              	ENDIF
 361  0048              ;# 361 "C:\HT-3000\UC_F5660\UC_F5660_main.c" 1
 361  0048              	IF 10==0
 361  0048              ;# 361 "C:\HT-3000\UC_F5660\UC_F5660_main.c" 1
"File: UC_F5660_main.c  Assembler  Version HGASM0202      Page 32

 361  0048              	JMP $
 361  0048              	ENDIF
 361  0048              ;# 361 "C:\HT-3000\UC_F5660\UC_F5660_main.c" 1
 361  0048              	IF (10>=1) AND (10<( 4 + __PBP__ * 2))
 361  0048              ;# 361 "C:\HT-3000\UC_F5660\UC_F5660_main.c" 1
 361  0048              	NOP
 361  0048              	ENDIF
 361  0048              ;# 361 "C:\HT-3000\UC_F5660\UC_F5660_main.c" 1
 361  0048              	IF (10>=2) AND (10<( 4 + __PBP__ * 2))
 361  0048              ;# 361 "C:\HT-3000\UC_F5660\UC_F5660_main.c" 1
 361  0048              	NOP
 361  0048              	ENDIF
 361  0048              ;# 361 "C:\HT-3000\UC_F5660\UC_F5660_main.c" 1
 361  0048              	IF (10>=3) AND (10<( 4 + __PBP__ * 2))
 361  0048              ;# 361 "C:\HT-3000\UC_F5660\UC_F5660_main.c" 1
 361  0048              	NOP
 361  0048              	ENDIF
 361  0048              ;# 361 "C:\HT-3000\UC_F5660\UC_F5660_main.c" 1
 361  0048              	IF (10>=4) AND (10<( 4 + __PBP__ * 2)) AND ( __PBP__ > 0 )
 361  0048              ;# 361 "C:\HT-3000\UC_F5660\UC_F5660_main.c" 1
 361  0048              	NOP
 361  0048              	ENDIF
 361  0048              ;# 361 "C:\HT-3000\UC_F5660\UC_F5660_main.c" 1
 361  0048              	IF (10>=5) AND (10<( 4 + __PBP__ * 2)) AND ( __PBP__ > 0 )
 361  0048              ;# 361 "C:\HT-3000\UC_F5660\UC_F5660_main.c" 1
 361  0048              	NOP
 361  0048              	ENDIF
 361  0048              ;# 361 "C:\HT-3000\UC_F5660\UC_F5660_main.c" 1
 361  0048              	IF (10>=6) AND (10<( 4 + __PBP__ * 2))  AND ( __PBP__ > 1 )
 361  0048              ;# 361 "C:\HT-3000\UC_F5660\UC_F5660_main.c" 1
 361  0048              	NOP
 361  0048              	ENDIF
 361  0048              ;# 361 "C:\HT-3000\UC_F5660\UC_F5660_main.c" 1
 361  0048              	IF (10>=7) AND (10<( 4 + __PBP__ * 2))  AND ( __PBP__ > 1 )
 361  0048              ;# 361 "C:\HT-3000\UC_F5660\UC_F5660_main.c" 1
 361  0048              	NOP
 361  0048              	ENDIF
 361  0048              ;# 361 "C:\HT-3000\UC_F5660\UC_F5660_main.c" 1
 361  0048              	IF (10>=8) AND (10<( 4 + __PBP__ * 2))  AND ( __PBP__ > 2 )
 361  0048              ;# 361 "C:\HT-3000\UC_F5660\UC_F5660_main.c" 1
 361  0048              	NOP
 361  0048              	ENDIF
 361  0048              ;# 361 "C:\HT-3000\UC_F5660\UC_F5660_main.c" 1
 361  0048              	IF (10==9)  AND ( __PBP__ > 2 )
 361  0048              ;# 361 "C:\HT-3000\UC_F5660\UC_F5660_main.c" 1
 361  0048              	NOP
 361  0048              	ENDIF
 361  0048              ;# 361 "C:\HT-3000\UC_F5660\UC_F5660_main.c" 1
 361  0048              	IF (10< ( 8 + __PBP__ * 2)) AND (10>( 3 + __PBP__ * 2))
 361  0048              ;# 361 "C:\HT-3000\UC_F5660\UC_F5660_main.c" 1
 361  0048              	fcall __DELAY3 + ( 7 + __PBP__ * 2) -10
 361  0048              	ENDIF
 361  0048              ;# 361 "C:\HT-3000\UC_F5660\UC_F5660_main.c" 1
 361  0048              	IF (10< ( 0404h + __PBP__ * 2)) AND (10>( 7 + __PBP__ * 2))
 361  0048              ;# 361 "C:\HT-3000\UC_F5660\UC_F5660_main.c" 1
 361  0048  0F01        	MOV A,(10-( 4 + __PBP__ * 2))/4
 361  0049              ;# 361 "C:\HT-3000\UC_F5660\UC_F5660_main.c" 1
 361  0049              	fcall __DELAYX3 + 3 -((10-( 4 + __PBP__ * 2)) MOD 4) 
 361  0050              	ENDIF
 361  0050              ;# 361 "C:\HT-3000\UC_F5660\UC_F5660_main.c" 1
"File: UC_F5660_main.c  Assembler  Version HGASM0202      Page 33

 361  0050              	IF (10< ( 040bh + __PBP__ * 2)) AND (10> ( 0403h + __PBP__ * 2))
 361  0050              ;# 361 "C:\HT-3000\UC_F5660\UC_F5660_main.c" 1
 361  0050              	MOV A,0 
 361  0050              ;# 361 "C:\HT-3000\UC_F5660\UC_F5660_main.c" 1
 361  0050              	fcall __DELAYX6 + ( 040ah + __PBP__ * 2) -10
 361  0050              	ENDIF
 361  0050              ;# 361 "C:\HT-3000\UC_F5660\UC_F5660_main.c" 1
 361  0050              	IF (10 >= ( 040bh + __PBP__ * 2)) AND ((((10-( 9 + __PBP__ * 2))%0402h)/4+1)>256)
 361  0050              ;# 361 "C:\HT-3000\UC_F5660\UC_F5660_main.c" 1
 361  0050              	MOV A,(10-( 9 + __PBP__ * 2))/0402h
 361  0050              ;# 361 "C:\HT-3000\UC_F5660\UC_F5660_main.c" 1
 361  0050              	MOV _builtin_holtek_delay_2,A
 361  0050              ;# 361 "C:\HT-3000\UC_F5660\UC_F5660_main.c" 1
 361  0050              	MOV A,0
 361  0050              ;# 361 "C:\HT-3000\UC_F5660\UC_F5660_main.c" 1
 361  0050              	fcall __DELAYY5 +5- (((10-( 9 + __PBP__ * 2))%0402h)%6) 
 361  0050              	ENDIF
 361  0050              ;# 361 "C:\HT-3000\UC_F5660\UC_F5660_main.c" 1
 361  0050              	IF (10 >= ( 040bh + __PBP__ * 2)) AND ((((10-( 9 + __PBP__ * 2))%0402h)/4+1)<=256)
 361  0050              ;# 361 "C:\HT-3000\UC_F5660\UC_F5660_main.c" 1
 361  0050              	MOV A,(10-( 9 + __PBP__ * 2))/0402h
 361  0050              ;# 361 "C:\HT-3000\UC_F5660\UC_F5660_main.c" 1
 361  0050              	MOV _builtin_holtek_delay_2,A
 361  0050              ;# 361 "C:\HT-3000\UC_F5660\UC_F5660_main.c" 1
 361  0050              	MOV A,((10-( 9 + __PBP__ * 2))%0402h)/4+1
 361  0050              ;# 361 "C:\HT-3000\UC_F5660\UC_F5660_main.c" 1
 361  0050              	fcall __DELAYY3 +3-(((10-( 9 + __PBP__ * 2))%0402h)%4) 
 361  0050              	ENDIF
 361  0050  0003        	ret
 361  0051              _blank endp
 361  0051              #line 361 "C:\HT-3000\UC_F5660\UC_F5660_main.c"
 361  0051              #pragma debug scope 1 1
 361  0051              public _UC_HT16K33
 361  0051              #pragma debug scope 9 1
  43  0051              #line 43 "C:\HT-3000\UC_F5660\UC_F5660_main.c"
  43  0000              _UC_HT16K33 .section 'code'
  43  0000              _UC_HT16K33 proc
  45  0000              #line 45 "C:\HT-3000\UC_F5660\UC_F5660_main.c"
  45  0000              	fcall _init_HT16K33
  46  0007              #line 46 "C:\HT-3000\UC_F5660\UC_F5660_main.c"
  46  0007              ;# 46 "C:\HT-3000\UC_F5660\UC_F5660_main.c" 1
  46  0007              	IF 3>263690
  46  0007              ;# 46 "C:\HT-3000\UC_F5660\UC_F5660_main.c" 1
  46  0007              	ERRMESSAGE 'the value 3of the argument exceeds the maxinum 263690'
  46  0007              	ENDIF
  46  0007              ;# 46 "C:\HT-3000\UC_F5660\UC_F5660_main.c" 1
  46  0007              	IF 3<0
  46  0007              ;# 46 "C:\HT-3000\UC_F5660\UC_F5660_main.c" 1
  46  0007              	ERRMESSAGE 'the value 3 of the argument exceeds the mininum 0'
  46  0007              	ENDIF
  46  0007              ;# 46 "C:\HT-3000\UC_F5660\UC_F5660_main.c" 1
  46  0007              	IF 3==0
  46  0007              ;# 46 "C:\HT-3000\UC_F5660\UC_F5660_main.c" 1
  46  0007              	JMP $
  46  0007              	ENDIF
  46  0007              ;# 46 "C:\HT-3000\UC_F5660\UC_F5660_main.c" 1
  46  0007              	IF (3>=1) AND (3<( 4 + __PBP__ * 2))
  46  0007              ;# 46 "C:\HT-3000\UC_F5660\UC_F5660_main.c" 1
  46  0007  0000        	NOP
  46  0008              	ENDIF
"File: UC_F5660_main.c  Assembler  Version HGASM0202      Page 34

  46  0008              ;# 46 "C:\HT-3000\UC_F5660\UC_F5660_main.c" 1
  46  0008              	IF (3>=2) AND (3<( 4 + __PBP__ * 2))
  46  0008              ;# 46 "C:\HT-3000\UC_F5660\UC_F5660_main.c" 1
  46  0008  0000        	NOP
  46  0009              	ENDIF
  46  0009              ;# 46 "C:\HT-3000\UC_F5660\UC_F5660_main.c" 1
  46  0009              	IF (3>=3) AND (3<( 4 + __PBP__ * 2))
  46  0009              ;# 46 "C:\HT-3000\UC_F5660\UC_F5660_main.c" 1
  46  0009  0000        	NOP
  46  000A              	ENDIF
  46  000A              ;# 46 "C:\HT-3000\UC_F5660\UC_F5660_main.c" 1
  46  000A              	IF (3>=4) AND (3<( 4 + __PBP__ * 2)) AND ( __PBP__ > 0 )
  46  000A              ;# 46 "C:\HT-3000\UC_F5660\UC_F5660_main.c" 1
  46  000A              	NOP
  46  000A              	ENDIF
  46  000A              ;# 46 "C:\HT-3000\UC_F5660\UC_F5660_main.c" 1
  46  000A              	IF (3>=5) AND (3<( 4 + __PBP__ * 2)) AND ( __PBP__ > 0 )
  46  000A              ;# 46 "C:\HT-3000\UC_F5660\UC_F5660_main.c" 1
  46  000A              	NOP
  46  000A              	ENDIF
  46  000A              ;# 46 "C:\HT-3000\UC_F5660\UC_F5660_main.c" 1
  46  000A              	IF (3>=6) AND (3<( 4 + __PBP__ * 2))  AND ( __PBP__ > 1 )
  46  000A              ;# 46 "C:\HT-3000\UC_F5660\UC_F5660_main.c" 1
  46  000A              	NOP
  46  000A              	ENDIF
  46  000A              ;# 46 "C:\HT-3000\UC_F5660\UC_F5660_main.c" 1
  46  000A              	IF (3>=7) AND (3<( 4 + __PBP__ * 2))  AND ( __PBP__ > 1 )
  46  000A              ;# 46 "C:\HT-3000\UC_F5660\UC_F5660_main.c" 1
  46  000A              	NOP
  46  000A              	ENDIF
  46  000A              ;# 46 "C:\HT-3000\UC_F5660\UC_F5660_main.c" 1
  46  000A              	IF (3>=8) AND (3<( 4 + __PBP__ * 2))  AND ( __PBP__ > 2 )
  46  000A              ;# 46 "C:\HT-3000\UC_F5660\UC_F5660_main.c" 1
  46  000A              	NOP
  46  000A              	ENDIF
  46  000A              ;# 46 "C:\HT-3000\UC_F5660\UC_F5660_main.c" 1
  46  000A              	IF (3==9)  AND ( __PBP__ > 2 )
  46  000A              ;# 46 "C:\HT-3000\UC_F5660\UC_F5660_main.c" 1
  46  000A              	NOP
  46  000A              	ENDIF
  46  000A              ;# 46 "C:\HT-3000\UC_F5660\UC_F5660_main.c" 1
  46  000A              	IF (3< ( 8 + __PBP__ * 2)) AND (3>( 3 + __PBP__ * 2))
  46  000A              ;# 46 "C:\HT-3000\UC_F5660\UC_F5660_main.c" 1
  46  000A              	fcall __DELAY3 + ( 7 + __PBP__ * 2) -3
  46  000A              	ENDIF
  46  000A              ;# 46 "C:\HT-3000\UC_F5660\UC_F5660_main.c" 1
  46  000A              	IF (3< ( 0404h + __PBP__ * 2)) AND (3>( 7 + __PBP__ * 2))
  46  000A              ;# 46 "C:\HT-3000\UC_F5660\UC_F5660_main.c" 1
  46  000A              	MOV A,(3-( 4 + __PBP__ * 2))/4
  46  000A              ;# 46 "C:\HT-3000\UC_F5660\UC_F5660_main.c" 1
  46  000A              	fcall __DELAYX3 + 3 -((3-( 4 + __PBP__ * 2)) MOD 4) 
  46  000A              	ENDIF
  46  000A              ;# 46 "C:\HT-3000\UC_F5660\UC_F5660_main.c" 1
  46  000A              	IF (3< ( 040bh + __PBP__ * 2)) AND (3> ( 0403h + __PBP__ * 2))
  46  000A              ;# 46 "C:\HT-3000\UC_F5660\UC_F5660_main.c" 1
  46  000A              	MOV A,0 
  46  000A              ;# 46 "C:\HT-3000\UC_F5660\UC_F5660_main.c" 1
  46  000A              	fcall __DELAYX6 + ( 040ah + __PBP__ * 2) -3
  46  000A              	ENDIF
  46  000A              ;# 46 "C:\HT-3000\UC_F5660\UC_F5660_main.c" 1
"File: UC_F5660_main.c  Assembler  Version HGASM0202      Page 35

  46  000A              	IF (3 >= ( 040bh + __PBP__ * 2)) AND ((((3-( 9 + __PBP__ * 2))%0402h)/4+1)>256)
  46  000A              ;# 46 "C:\HT-3000\UC_F5660\UC_F5660_main.c" 1
  46  000A              	MOV A,(3-( 9 + __PBP__ * 2))/0402h
  46  000A              ;# 46 "C:\HT-3000\UC_F5660\UC_F5660_main.c" 1
  46  000A              	MOV _builtin_holtek_delay_2,A
  46  000A              ;# 46 "C:\HT-3000\UC_F5660\UC_F5660_main.c" 1
  46  000A              	MOV A,0
  46  000A              ;# 46 "C:\HT-3000\UC_F5660\UC_F5660_main.c" 1
  46  000A              	fcall __DELAYY5 +5- (((3-( 9 + __PBP__ * 2))%0402h)%6) 
  46  000A              	ENDIF
  46  000A              ;# 46 "C:\HT-3000\UC_F5660\UC_F5660_main.c" 1
  46  000A              	IF (3 >= ( 040bh + __PBP__ * 2)) AND ((((3-( 9 + __PBP__ * 2))%0402h)/4+1)<=256)
  46  000A              ;# 46 "C:\HT-3000\UC_F5660\UC_F5660_main.c" 1
  46  000A              	MOV A,(3-( 9 + __PBP__ * 2))/0402h
  46  000A              ;# 46 "C:\HT-3000\UC_F5660\UC_F5660_main.c" 1
  46  000A              	MOV _builtin_holtek_delay_2,A
  46  000A              ;# 46 "C:\HT-3000\UC_F5660\UC_F5660_main.c" 1
  46  000A              	MOV A,((3-( 9 + __PBP__ * 2))%0402h)/4+1
  46  000A              ;# 46 "C:\HT-3000\UC_F5660\UC_F5660_main.c" 1
  46  000A              	fcall __DELAYY3 +3-(((3-( 9 + __PBP__ * 2))%0402h)%4) 
  46  000A              	ENDIF
  47  000A              #line 47 "C:\HT-3000\UC_F5660\UC_F5660_main.c"
  47  000A              	fcall _HT16K33_LED_RAM_Clear
  48  0011              #line 48 "C:\HT-3000\UC_F5660\UC_F5660_main.c"
  48  0011              	fcall _LED_all_TURN_ON
  50  0018              #line 50 "C:\HT-3000\UC_F5660\UC_F5660_main.c"
  50  0018              	fcall _blank
  50  001F  0003        	ret
  50  0020              _UC_HT16K33 endp
  50  0020              #line 50 "C:\HT-3000\UC_F5660\UC_F5660_main.c"
  50  0020              #pragma debug scope 1 1
  50  0020              ___wdtc equ [42]
  50  0020              ___tbc equ [39]
  50  0020              public _main
  50  0020              #pragma debug scope 10 1
  20  0020              #line 20 "C:\HT-3000\UC_F5660\UC_F5660_main.c"
  20  0020              IFDEF WITH_DEFAULT_STARTUP
  20  0020              extern _main_initial0:near
  20  0020              extern _main_startup:near
  20  0020              ENDIF
  20  0020              
  20  0020              ROMBANK 0 @start
  20  0000              @start .section com_l 'code'
  20  0000              _main_startup1:
  20  0000              @start .section com_e 'code'
  20  0000  0F00     R  	mov a,bank _main
  20  0001  008B        	mov bp,a
  20  0002  2800     R  	jmp _main
  20  0003              
  20  0000              _main .section 'code'
  20  0000              _main proc
  31  0000              #line 31 "C:\HT-3000\UC_F5660\UC_F5660_main.c"
  31  0000              	fcall _System_Clock_Init
  31  0007              #pragma debug scope 11 10
  31  0007              ;begin block, line: 31.-1
  31  0007              #pragma debug scope 12 11
  31  0007              ;begin block, line: 31.-1
 388  0007              #line 388 "C:\HT-3000\UC_F5660\UC_F5660_main.c"
 388  0007  0FA8        	mov a,168
 388  0008  00AA        	mov [42],a
"File: UC_F5660_main.c  Assembler  Version HGASM0202      Page 36

 388  0009              #pragma debug scope 11 10
 388  0009              #pragma debug scope 10 1
  36  0009              #line 36 "C:\HT-3000\UC_F5660\UC_F5660_main.c"
  36  0009  37A7        	clr [39].7
  37  000A              #line 37 "C:\HT-3000\UC_F5660\UC_F5660_main.c"
  37  000A              	fcall _UC_HT16K33
  37  0011  2800     R  	jmp $
  37  0012              _main endp
  37  0012              
  37  0012              @dummy endp
  37  0012              
  37  0012              #line 37 "C:\HT-3000\UC_F5660\UC_F5660_main.c"
  37  0012              #pragma debug scope 1 1
  37  0012              public _UC_Watchdog
  37  0012              #pragma debug scope 13 1
 371  0012              #line 371 "C:\HT-3000\UC_F5660\UC_F5660_main.c"
 371  0000              _UC_Watchdog .section 'code'
 371  0000              _UC_Watchdog proc
 371  0000              public _UC_Watchdog_2
 371  0000  0002[           local _UC_Watchdog_2 db 2 dup(?)	; 2,0
            00
            ]
 371  0002              #pragma debug variable 12 13 _UC_Watchdog_2+0 "Watchdog"
 373  0002              #line 373 "C:\HT-3000\UC_F5660\UC_F5660_main.c"
 373  0000  0700     R  	mov a,_UC_Watchdog_2[0]
 373  0001  0C01        	xor a,1
 373  0002  0500     R  	or a,_UC_Watchdog_2[1]
 373  0003  390A        	snz z
 373  0004  2800     R  	jmp _L74
 374  0005              #line 374 "C:\HT-3000\UC_F5660\UC_F5660_main.c"
 374  0005  37AA        	clr [42].7
 375  0006              #line 375 "C:\HT-3000\UC_F5660\UC_F5660_main.c"
 375  0006  332A        	set [42].6
 376  0007              #line 376 "C:\HT-3000\UC_F5660\UC_F5660_main.c"
 376  0007  36AA        	clr [42].5
 377  0008              #line 377 "C:\HT-3000\UC_F5660\UC_F5660_main.c"
 377  0008  322A        	set [42].4
 378  0009              #line 378 "C:\HT-3000\UC_F5660\UC_F5660_main.c"
 378  0009  35AA        	clr [42].3
 381  000A              #line 381 "C:\HT-3000\UC_F5660\UC_F5660_main.c"
 381  000A  352A        	clr [42].2
 382  000B              #line 382 "C:\HT-3000\UC_F5660\UC_F5660_main.c"
 382  000B  34AA        	clr [42].1
 383  000C              #line 383 "C:\HT-3000\UC_F5660\UC_F5660_main.c"
 383  000C  342A        	clr [42].0
 384  000D              #line 384 "C:\HT-3000\UC_F5660\UC_F5660_main.c"
 384  000D  2800     R  	jmp _L73
 384  000E              _L74:
 388  000E              #line 388 "C:\HT-3000\UC_F5660\UC_F5660_main.c"
 388  000E  0FA8        	mov a,168
 388  000F  00AA        	mov [42],a
 388  0010              _L73:
 388  0010  0003        	ret
 388  0011              _UC_Watchdog endp
 388  0011              #line 388 "C:\HT-3000\UC_F5660\UC_F5660_main.c"
 388  0011              #pragma debug scope 1 1
 388  0011              public _CheckAddressCnt
 388  0000              @HCCINIT	.section 'data'
  17  0000              #line 17 "C:\HT-3000\UC_F5660\UC_F5660_main.c"
  17  0000              @HCCINIT_CheckAddressCnt .section 'data'
"File: UC_F5660_main.c  Assembler  Version HGASM0202      Page 37

  17  0000              _CheckAddressCnt label byte
  17  0000              #pragma debug variable 8 1 _CheckAddressCnt "CheckAddressCnt"
  17  0000              	db 5
  17  0000              @ROMDATA_BASE .section inpage 'code'
  17  0000              	db 5
  17  0001              @HCCINIT_CheckAddressCnt .section 'data'
  17  0000              @HCCINIT0_display_Buffer .section 'data'
  17  0000  0010[       _display_Buffer	db 16 dup(0)
            00
            ]
  17  0010              #pragma debug array 42 12 8 1
  17  0010              #pragma debug array 42 12 8 1
  17  0010              #pragma debug variable 42 1 _display_Buffer "display_Buffer"
  17  0010              
  17  0000              @HCCINIT .section 'data'
  17  0000              #pragma debug struct_end
  17  0000              #pragma debug struct_end
  17  0000              #pragma debug union_end
  17  0000              #pragma debug union_end
  17  0000              #pragma debug variable 44 1 ___tbc "__tbc" 1
  17  0000              #pragma debug struct_end
  17  0000              #pragma debug struct_end
  17  0000              #pragma debug union_end
  17  0000              #pragma debug union_end
  17  0000              #pragma debug variable 46 1 ___wdtc "__wdtc" 1
  20  0000              #line 20 "C:\HT-3000\UC_F5660\UC_F5660_main.c"
  20  0000              @code .section at 0 'code'
  20  0000  1F0B        	clr bp
  20  0001  2800     R  	jmp _main_startup1
  20  0002              
  20  0002              extern _i2c_start:near
  20  0002              extern _i2c_write:near
  20  0002              extern _i2c_read_ACK:near
  20  0002              extern _i2c_stop:near
  20  0002              extern _i2c_init:near
  20  0002              extern _System_Clock_Init:near
  20  0002              
  20  0002              ; 
  20  0002              ; Generated by holtek-gcc v3.20, Tue Oct 20 21:41:37 2020
  20  0002              ; Rebuild 610
  20  0002              ; end of file


        0 Errors, 0