"File: UC_F5660_main.c  Assembler  Version HGASM0202      Page 1


   1  0000              ; Generated by holtek-gcc v3.19, Wed Sep 16 16:26:07 2020
   2  0000              ; 
   3  0000              ; Configuration:
   4  0000              ;       with long instruction
   5  0000              ;       Multi-ROM, Multi-RAM
   6  0000              ;       bits_per_rom_unit:16
   7  0000              ;       with mp1
   8  0000              ;       with tbhp, address(0x9)
   9  0000              ;          Use tabrd-const
  10  0000              ;       
  11  0000              ; SFR address of long-instruction arch:
  12  0000              ;    mp0 = -1,1,0
  13  0000              ;    mp1 = 4,3,2
  14  0000              ;    mp2 = 14,13,12
  15  0000              ;    tbp = 9,7,8
  16  0000              ;    acc = 5
  17  0000              ;    pcl = 6
  18  0000              ;    status = 10
  19  0000              ;    bp = 11
  20  0000              ;    intc = 16
  21  0000              ;       
  22  0000              ;       
  23  0000              ; use 'tabrdc' instead of 'tabrd'
  24  0000              ;       
  25  0000              
  26  0000              #pragma translator "holtek-gcc 4.6.4" "3.19" "build 20130711"
  27  0000              ; Rebuild 718
  28  0000              
  29  0000              ir equ [2]
  30  0000              mp equ [3]
  31  0000              sbp equ [4]
  32  0000              acc equ [5]
  33  0000              bp equ [11]
  34  0000              tblp equ [7]
  35  0000              tbhp equ [9]
  36  0000              status equ [10]
  37  0000              c equ [10].0
  38  0000              ac equ [10].1
  39  0000              z equ [10].2
  40  0000              ov equ [10].3
  41  0000              cz equ [10].6
  42  0000              sc equ [10].7
  43  0000              intc equ [16]
  44  0000              
  45  0000              extern ra:byte
  46  0000              extern rb:byte
  47  0000              extern rc:byte
  48  0000              extern rd:byte
  49  0000              extern re:byte
  50  0000              extern rf:byte
  51  0000              extern rg:byte
  52  0000              extern rh:byte
  53  0000              extern _Crom2Prom:near
  54  0000              extern _Crom2PromNext:near
  55  0000              
  56  0000              RAMBANK 0 @BITDATASEC, @BITDATASEC1
  57  0000              @HCCINIT	.section 'data'
  58  0000              @HCCINIT0	.section 'data'
  59  0000              @BITDATASEC	 .section 'data'
"File: UC_F5660_main.ASM  Assembler  Version HGASM0202      Page 2

  60  0000              @BITDATASEC1	 .section 'data'
  61  0000              
  62  0000              #pragma debug scope 1 1
  63  0000              	extern __DELAY3:near
  64  0000              	extern __DELAYX3:near
  65  0000              	extern __DELAYX6:near
  66  0000              	extern __DELAYY5:near
  67  0000              	extern __DELAYY3:near
  68  0000              	extern _builtin_holtek_delay_2:byte
  69  0000              public _init_HT16K33
  70  0000              #pragma debug scope 2 1

  45  0000              #line 45 "C:\UC_MCU-Develop\UC_F5660_main.c"
  45  0000              _init_HT16K33 .section 'code'
  45  0000              _init_HT16K33 proc
  45  0000  00              local _init_HT16K33_2 db 1 dup(?)	; 0,1
  46  0001              #line 46 "C:\UC_MCU-Develop\UC_F5660_main.c"
  46  0000              	fcall _i2c_init
  46  0007  0F05        	mov a,5
  46  0008  0080     R  	mov _init_HT16K33_2[0],a
  46  0009              _L6:
  53  0009              #line 53 "C:\UC_MCU-Develop\UC_F5660_main.c"
  53  0009              	fcall _i2c_start
  54  0010              #line 54 "C:\UC_MCU-Develop\UC_F5660_main.c"
  54  0010  0FE0        	mov a,224
  54  0011              	fcall _i2c_write
  55  0018              #line 55 "C:\UC_MCU-Develop\UC_F5660_main.c"
  55  0018              	fcall _i2c_read_ACK
  55  001F  0080     E  	mov ra,a
  55  0020  1080     E  	sz ra
  55  0021  2800     R  	jmp _L2
  58  0022              #line 58 "C:\UC_MCU-Develop\UC_F5660_main.c"
  58  0022  0F21        	mov a,33
  58  0023              	fcall _i2c_write
  59  002A              #line 59 "C:\UC_MCU-Develop\UC_F5660_main.c"
  59  002A              	fcall _i2c_read_ACK
  59  0031  0080     E  	mov ra,a
  59  0032  1080     E  	sz ra
  59  0033  2800     R  	jmp _L16
  61  0034              #line 61 "C:\UC_MCU-Develop\UC_F5660_main.c"
  61  0034              	fcall _i2c_stop
  62  003B              #line 62 "C:\UC_MCU-Develop\UC_F5660_main.c"
  62  003B  2800     R  	jmp _L4
  62  003C              _L2:
  69  003C              #line 69 "C:\UC_MCU-Develop\UC_F5660_main.c"
  69  003C              	fcall _i2c_stop
  70  0043              #line 70 "C:\UC_MCU-Develop\UC_F5660_main.c"
  70  0043              ;# 70 "C:\UC_MCU-Develop\UC_F5660_main.c" 1
  70  0043              	IF 10>263690
  70  0043              ;# 70 "C:\UC_MCU-Develop\UC_F5660_main.c" 1
  70  0043              	ERRMESSAGE 'the value 10of the argument exceeds the maxinum 263690'
  70  0043              	ENDIF
  70  0043              ;# 70 "C:\UC_MCU-Develop\UC_F5660_main.c" 1
  70  0043              	IF 10<0
  70  0043              ;# 70 "C:\UC_MCU-Develop\UC_F5660_main.c" 1
  70  0043              	ERRMESSAGE 'the value 10 of the argument exceeds the mininum 0'
  70  0043              	ENDIF
  70  0043              ;# 70 "C:\UC_MCU-Develop\UC_F5660_main.c" 1
  70  0043              	IF 10==0
  70  0043              ;# 70 "C:\UC_MCU-Develop\UC_F5660_main.c" 1
"File: UC_F5660_main.c  Assembler  Version HGASM0202      Page 3

  70  0043              	JMP $
  70  0043              	ENDIF
  70  0043              ;# 70 "C:\UC_MCU-Develop\UC_F5660_main.c" 1
  70  0043              	IF (10>=1) AND (10<( 4 + __PBP__ * 2))
  70  0043              ;# 70 "C:\UC_MCU-Develop\UC_F5660_main.c" 1
  70  0043              	NOP
  70  0043              	ENDIF
  70  0043              ;# 70 "C:\UC_MCU-Develop\UC_F5660_main.c" 1
  70  0043              	IF (10>=2) AND (10<( 4 + __PBP__ * 2))
  70  0043              ;# 70 "C:\UC_MCU-Develop\UC_F5660_main.c" 1
  70  0043              	NOP
  70  0043              	ENDIF
  70  0043              ;# 70 "C:\UC_MCU-Develop\UC_F5660_main.c" 1
  70  0043              	IF (10>=3) AND (10<( 4 + __PBP__ * 2))
  70  0043              ;# 70 "C:\UC_MCU-Develop\UC_F5660_main.c" 1
  70  0043              	NOP
  70  0043              	ENDIF
  70  0043              ;# 70 "C:\UC_MCU-Develop\UC_F5660_main.c" 1
  70  0043              	IF (10>=4) AND (10<( 4 + __PBP__ * 2)) AND ( __PBP__ > 0 )
  70  0043              ;# 70 "C:\UC_MCU-Develop\UC_F5660_main.c" 1
  70  0043              	NOP
  70  0043              	ENDIF
  70  0043              ;# 70 "C:\UC_MCU-Develop\UC_F5660_main.c" 1
  70  0043              	IF (10>=5) AND (10<( 4 + __PBP__ * 2)) AND ( __PBP__ > 0 )
  70  0043              ;# 70 "C:\UC_MCU-Develop\UC_F5660_main.c" 1
  70  0043              	NOP
  70  0043              	ENDIF
  70  0043              ;# 70 "C:\UC_MCU-Develop\UC_F5660_main.c" 1
  70  0043              	IF (10>=6) AND (10<( 4 + __PBP__ * 2))  AND ( __PBP__ > 1 )
  70  0043              ;# 70 "C:\UC_MCU-Develop\UC_F5660_main.c" 1
  70  0043              	NOP
  70  0043              	ENDIF
  70  0043              ;# 70 "C:\UC_MCU-Develop\UC_F5660_main.c" 1
  70  0043              	IF (10>=7) AND (10<( 4 + __PBP__ * 2))  AND ( __PBP__ > 1 )
  70  0043              ;# 70 "C:\UC_MCU-Develop\UC_F5660_main.c" 1
  70  0043              	NOP
  70  0043              	ENDIF
  70  0043              ;# 70 "C:\UC_MCU-Develop\UC_F5660_main.c" 1
  70  0043              	IF (10>=8) AND (10<( 4 + __PBP__ * 2))  AND ( __PBP__ > 2 )
  70  0043              ;# 70 "C:\UC_MCU-Develop\UC_F5660_main.c" 1
  70  0043              	NOP
  70  0043              	ENDIF
  70  0043              ;# 70 "C:\UC_MCU-Develop\UC_F5660_main.c" 1
  70  0043              	IF (10==9)  AND ( __PBP__ > 2 )
  70  0043              ;# 70 "C:\UC_MCU-Develop\UC_F5660_main.c" 1
  70  0043              	NOP
  70  0043              	ENDIF
  70  0043              ;# 70 "C:\UC_MCU-Develop\UC_F5660_main.c" 1
  70  0043              	IF (10< ( 8 + __PBP__ * 2)) AND (10>( 3 + __PBP__ * 2))
  70  0043              ;# 70 "C:\UC_MCU-Develop\UC_F5660_main.c" 1
  70  0043              	fcall __DELAY3 + ( 7 + __PBP__ * 2) -10
  70  0043              	ENDIF
  70  0043              ;# 70 "C:\UC_MCU-Develop\UC_F5660_main.c" 1
  70  0043              	IF (10< ( 0404h + __PBP__ * 2)) AND (10>( 7 + __PBP__ * 2))
  70  0043              ;# 70 "C:\UC_MCU-Develop\UC_F5660_main.c" 1
  70  0043  0F01        	MOV A,(10-( 4 + __PBP__ * 2))/4
  70  0044              ;# 70 "C:\UC_MCU-Develop\UC_F5660_main.c" 1
  70  0044              	fcall __DELAYX3 + 3 -((10-( 4 + __PBP__ * 2)) MOD 4) 
  70  004B              	ENDIF
  70  004B              ;# 70 "C:\UC_MCU-Develop\UC_F5660_main.c" 1
"File: UC_F5660_main.c  Assembler  Version HGASM0202      Page 4

  70  004B              	IF (10< ( 040bh + __PBP__ * 2)) AND (10> ( 0403h + __PBP__ * 2))
  70  004B              ;# 70 "C:\UC_MCU-Develop\UC_F5660_main.c" 1
  70  004B              	MOV A,0 
  70  004B              ;# 70 "C:\UC_MCU-Develop\UC_F5660_main.c" 1
  70  004B              	fcall __DELAYX6 + ( 040ah + __PBP__ * 2) -10
  70  004B              	ENDIF
  70  004B              ;# 70 "C:\UC_MCU-Develop\UC_F5660_main.c" 1
  70  004B              	IF (10 >= ( 040bh + __PBP__ * 2)) AND ((((10-( 9 + __PBP__ * 2))%0402h)/4+1)>256)
  70  004B              ;# 70 "C:\UC_MCU-Develop\UC_F5660_main.c" 1
  70  004B              	MOV A,(10-( 9 + __PBP__ * 2))/0402h
  70  004B              ;# 70 "C:\UC_MCU-Develop\UC_F5660_main.c" 1
  70  004B              	MOV _builtin_holtek_delay_2,A
  70  004B              ;# 70 "C:\UC_MCU-Develop\UC_F5660_main.c" 1
  70  004B              	MOV A,0
  70  004B              ;# 70 "C:\UC_MCU-Develop\UC_F5660_main.c" 1
  70  004B              	fcall __DELAYY5 +5- (((10-( 9 + __PBP__ * 2))%0402h)%6) 
  70  004B              	ENDIF
  70  004B              ;# 70 "C:\UC_MCU-Develop\UC_F5660_main.c" 1
  70  004B              	IF (10 >= ( 040bh + __PBP__ * 2)) AND ((((10-( 9 + __PBP__ * 2))%0402h)/4+1)<=256)
  70  004B              ;# 70 "C:\UC_MCU-Develop\UC_F5660_main.c" 1
  70  004B              	MOV A,(10-( 9 + __PBP__ * 2))/0402h
  70  004B              ;# 70 "C:\UC_MCU-Develop\UC_F5660_main.c" 1
  70  004B              	MOV _builtin_holtek_delay_2,A
  70  004B              ;# 70 "C:\UC_MCU-Develop\UC_F5660_main.c" 1
  70  004B              	MOV A,((10-( 9 + __PBP__ * 2))%0402h)/4+1
  70  004B              ;# 70 "C:\UC_MCU-Develop\UC_F5660_main.c" 1
  70  004B              	fcall __DELAYY3 +3-(((10-( 9 + __PBP__ * 2))%0402h)%4) 
  70  004B              	ENDIF
  70  004B  1780     R  	sdz _init_HT16K33_2[0]
  70  004C  2800     R  	jmp _L6
  70  004D              _L4:
  74  004D              #line 74 "C:\UC_MCU-Develop\UC_F5660_main.c"
  74  004D              ;# 74 "C:\UC_MCU-Develop\UC_F5660_main.c" 1
  74  004D              	IF 10>263690
  74  004D              ;# 74 "C:\UC_MCU-Develop\UC_F5660_main.c" 1
  74  004D              	ERRMESSAGE 'the value 10of the argument exceeds the maxinum 263690'
  74  004D              	ENDIF
  74  004D              ;# 74 "C:\UC_MCU-Develop\UC_F5660_main.c" 1
  74  004D              	IF 10<0
  74  004D              ;# 74 "C:\UC_MCU-Develop\UC_F5660_main.c" 1
  74  004D              	ERRMESSAGE 'the value 10 of the argument exceeds the mininum 0'
  74  004D              	ENDIF
  74  004D              ;# 74 "C:\UC_MCU-Develop\UC_F5660_main.c" 1
  74  004D              	IF 10==0
  74  004D              ;# 74 "C:\UC_MCU-Develop\UC_F5660_main.c" 1
  74  004D              	JMP $
  74  004D              	ENDIF
  74  004D              ;# 74 "C:\UC_MCU-Develop\UC_F5660_main.c" 1
  74  004D              	IF (10>=1) AND (10<( 4 + __PBP__ * 2))
  74  004D              ;# 74 "C:\UC_MCU-Develop\UC_F5660_main.c" 1
  74  004D              	NOP
  74  004D              	ENDIF
  74  004D              ;# 74 "C:\UC_MCU-Develop\UC_F5660_main.c" 1
  74  004D              	IF (10>=2) AND (10<( 4 + __PBP__ * 2))
  74  004D              ;# 74 "C:\UC_MCU-Develop\UC_F5660_main.c" 1
  74  004D              	NOP
  74  004D              	ENDIF
  74  004D              ;# 74 "C:\UC_MCU-Develop\UC_F5660_main.c" 1
  74  004D              	IF (10>=3) AND (10<( 4 + __PBP__ * 2))
  74  004D              ;# 74 "C:\UC_MCU-Develop\UC_F5660_main.c" 1
"File: UC_F5660_main.c  Assembler  Version HGASM0202      Page 5

  74  004D              	NOP
  74  004D              	ENDIF
  74  004D              ;# 74 "C:\UC_MCU-Develop\UC_F5660_main.c" 1
  74  004D              	IF (10>=4) AND (10<( 4 + __PBP__ * 2)) AND ( __PBP__ > 0 )
  74  004D              ;# 74 "C:\UC_MCU-Develop\UC_F5660_main.c" 1
  74  004D              	NOP
  74  004D              	ENDIF
  74  004D              ;# 74 "C:\UC_MCU-Develop\UC_F5660_main.c" 1
  74  004D              	IF (10>=5) AND (10<( 4 + __PBP__ * 2)) AND ( __PBP__ > 0 )
  74  004D              ;# 74 "C:\UC_MCU-Develop\UC_F5660_main.c" 1
  74  004D              	NOP
  74  004D              	ENDIF
  74  004D              ;# 74 "C:\UC_MCU-Develop\UC_F5660_main.c" 1
  74  004D              	IF (10>=6) AND (10<( 4 + __PBP__ * 2))  AND ( __PBP__ > 1 )
  74  004D              ;# 74 "C:\UC_MCU-Develop\UC_F5660_main.c" 1
  74  004D              	NOP
  74  004D              	ENDIF
  74  004D              ;# 74 "C:\UC_MCU-Develop\UC_F5660_main.c" 1
  74  004D              	IF (10>=7) AND (10<( 4 + __PBP__ * 2))  AND ( __PBP__ > 1 )
  74  004D              ;# 74 "C:\UC_MCU-Develop\UC_F5660_main.c" 1
  74  004D              	NOP
  74  004D              	ENDIF
  74  004D              ;# 74 "C:\UC_MCU-Develop\UC_F5660_main.c" 1
  74  004D              	IF (10>=8) AND (10<( 4 + __PBP__ * 2))  AND ( __PBP__ > 2 )
  74  004D              ;# 74 "C:\UC_MCU-Develop\UC_F5660_main.c" 1
  74  004D              	NOP
  74  004D              	ENDIF
  74  004D              ;# 74 "C:\UC_MCU-Develop\UC_F5660_main.c" 1
  74  004D              	IF (10==9)  AND ( __PBP__ > 2 )
  74  004D              ;# 74 "C:\UC_MCU-Develop\UC_F5660_main.c" 1
  74  004D              	NOP
  74  004D              	ENDIF
  74  004D              ;# 74 "C:\UC_MCU-Develop\UC_F5660_main.c" 1
  74  004D              	IF (10< ( 8 + __PBP__ * 2)) AND (10>( 3 + __PBP__ * 2))
  74  004D              ;# 74 "C:\UC_MCU-Develop\UC_F5660_main.c" 1
  74  004D              	fcall __DELAY3 + ( 7 + __PBP__ * 2) -10
  74  004D              	ENDIF
  74  004D              ;# 74 "C:\UC_MCU-Develop\UC_F5660_main.c" 1
  74  004D              	IF (10< ( 0404h + __PBP__ * 2)) AND (10>( 7 + __PBP__ * 2))
  74  004D              ;# 74 "C:\UC_MCU-Develop\UC_F5660_main.c" 1
  74  004D  0F01        	MOV A,(10-( 4 + __PBP__ * 2))/4
  74  004E              ;# 74 "C:\UC_MCU-Develop\UC_F5660_main.c" 1
  74  004E              	fcall __DELAYX3 + 3 -((10-( 4 + __PBP__ * 2)) MOD 4) 
  74  0055              	ENDIF
  74  0055              ;# 74 "C:\UC_MCU-Develop\UC_F5660_main.c" 1
  74  0055              	IF (10< ( 040bh + __PBP__ * 2)) AND (10> ( 0403h + __PBP__ * 2))
  74  0055              ;# 74 "C:\UC_MCU-Develop\UC_F5660_main.c" 1
  74  0055              	MOV A,0 
  74  0055              ;# 74 "C:\UC_MCU-Develop\UC_F5660_main.c" 1
  74  0055              	fcall __DELAYX6 + ( 040ah + __PBP__ * 2) -10
  74  0055              	ENDIF
  74  0055              ;# 74 "C:\UC_MCU-Develop\UC_F5660_main.c" 1
  74  0055              	IF (10 >= ( 040bh + __PBP__ * 2)) AND ((((10-( 9 + __PBP__ * 2))%0402h)/4+1)>256)
  74  0055              ;# 74 "C:\UC_MCU-Develop\UC_F5660_main.c" 1
  74  0055              	MOV A,(10-( 9 + __PBP__ * 2))/0402h
  74  0055              ;# 74 "C:\UC_MCU-Develop\UC_F5660_main.c" 1
  74  0055              	MOV _builtin_holtek_delay_2,A
  74  0055              ;# 74 "C:\UC_MCU-Develop\UC_F5660_main.c" 1
  74  0055              	MOV A,0
  74  0055              ;# 74 "C:\UC_MCU-Develop\UC_F5660_main.c" 1
"File: UC_F5660_main.c  Assembler  Version HGASM0202      Page 6

  74  0055              	fcall __DELAYY5 +5- (((10-( 9 + __PBP__ * 2))%0402h)%6) 
  74  0055              	ENDIF
  74  0055              ;# 74 "C:\UC_MCU-Develop\UC_F5660_main.c" 1
  74  0055              	IF (10 >= ( 040bh + __PBP__ * 2)) AND ((((10-( 9 + __PBP__ * 2))%0402h)/4+1)<=256)
  74  0055              ;# 74 "C:\UC_MCU-Develop\UC_F5660_main.c" 1
  74  0055              	MOV A,(10-( 9 + __PBP__ * 2))/0402h
  74  0055              ;# 74 "C:\UC_MCU-Develop\UC_F5660_main.c" 1
  74  0055              	MOV _builtin_holtek_delay_2,A
  74  0055              ;# 74 "C:\UC_MCU-Develop\UC_F5660_main.c" 1
  74  0055              	MOV A,((10-( 9 + __PBP__ * 2))%0402h)/4+1
  74  0055              ;# 74 "C:\UC_MCU-Develop\UC_F5660_main.c" 1
  74  0055              	fcall __DELAYY3 +3-(((10-( 9 + __PBP__ * 2))%0402h)%4) 
  74  0055              	ENDIF
  74  0055  0F05        	mov a,5
  74  0056  0080     R  	mov _init_HT16K33_2[0],a
  74  0057              _L10:
  82  0057              #line 82 "C:\UC_MCU-Develop\UC_F5660_main.c"
  82  0057              	fcall _i2c_start
  83  005E              #line 83 "C:\UC_MCU-Develop\UC_F5660_main.c"
  83  005E  0FE0        	mov a,224
  83  005F              	fcall _i2c_write
  84  0066              #line 84 "C:\UC_MCU-Develop\UC_F5660_main.c"
  84  0066              	fcall _i2c_read_ACK
  84  006D  0080     E  	mov ra,a
  84  006E  1080     E  	sz ra
  84  006F  2800     R  	jmp _L7
  87  0070              #line 87 "C:\UC_MCU-Develop\UC_F5660_main.c"
  87  0070  0FEF        	mov a,239
  87  0071              	fcall _i2c_write
  88  0078              #line 88 "C:\UC_MCU-Develop\UC_F5660_main.c"
  88  0078              	fcall _i2c_read_ACK
  88  007F  0080     E  	mov ra,a
  88  0080  1080     E  	sz ra
  88  0081  2800     R  	jmp _L16
  90  0082              #line 90 "C:\UC_MCU-Develop\UC_F5660_main.c"
  90  0082              	fcall _i2c_stop
  91  0089              #line 91 "C:\UC_MCU-Develop\UC_F5660_main.c"
  91  0089  2800     R  	jmp _L9
  91  008A              _L7:
  99  008A              #line 99 "C:\UC_MCU-Develop\UC_F5660_main.c"
  99  008A              	fcall _i2c_stop
 100  0091              #line 100 "C:\UC_MCU-Develop\UC_F5660_main.c"
 100  0091              ;# 100 "C:\UC_MCU-Develop\UC_F5660_main.c" 1
 100  0091              	IF 10>263690
 100  0091              ;# 100 "C:\UC_MCU-Develop\UC_F5660_main.c" 1
 100  0091              	ERRMESSAGE 'the value 10of the argument exceeds the maxinum 263690'
 100  0091              	ENDIF
 100  0091              ;# 100 "C:\UC_MCU-Develop\UC_F5660_main.c" 1
 100  0091              	IF 10<0
 100  0091              ;# 100 "C:\UC_MCU-Develop\UC_F5660_main.c" 1
 100  0091              	ERRMESSAGE 'the value 10 of the argument exceeds the mininum 0'
 100  0091              	ENDIF
 100  0091              ;# 100 "C:\UC_MCU-Develop\UC_F5660_main.c" 1
 100  0091              	IF 10==0
 100  0091              ;# 100 "C:\UC_MCU-Develop\UC_F5660_main.c" 1
 100  0091              	JMP $
 100  0091              	ENDIF
 100  0091              ;# 100 "C:\UC_MCU-Develop\UC_F5660_main.c" 1
 100  0091              	IF (10>=1) AND (10<( 4 + __PBP__ * 2))
 100  0091              ;# 100 "C:\UC_MCU-Develop\UC_F5660_main.c" 1
"File: UC_F5660_main.c  Assembler  Version HGASM0202      Page 7

 100  0091              	NOP
 100  0091              	ENDIF
 100  0091              ;# 100 "C:\UC_MCU-Develop\UC_F5660_main.c" 1
 100  0091              	IF (10>=2) AND (10<( 4 + __PBP__ * 2))
 100  0091              ;# 100 "C:\UC_MCU-Develop\UC_F5660_main.c" 1
 100  0091              	NOP
 100  0091              	ENDIF
 100  0091              ;# 100 "C:\UC_MCU-Develop\UC_F5660_main.c" 1
 100  0091              	IF (10>=3) AND (10<( 4 + __PBP__ * 2))
 100  0091              ;# 100 "C:\UC_MCU-Develop\UC_F5660_main.c" 1
 100  0091              	NOP
 100  0091              	ENDIF
 100  0091              ;# 100 "C:\UC_MCU-Develop\UC_F5660_main.c" 1
 100  0091              	IF (10>=4) AND (10<( 4 + __PBP__ * 2)) AND ( __PBP__ > 0 )
 100  0091              ;# 100 "C:\UC_MCU-Develop\UC_F5660_main.c" 1
 100  0091              	NOP
 100  0091              	ENDIF
 100  0091              ;# 100 "C:\UC_MCU-Develop\UC_F5660_main.c" 1
 100  0091              	IF (10>=5) AND (10<( 4 + __PBP__ * 2)) AND ( __PBP__ > 0 )
 100  0091              ;# 100 "C:\UC_MCU-Develop\UC_F5660_main.c" 1
 100  0091              	NOP
 100  0091              	ENDIF
 100  0091              ;# 100 "C:\UC_MCU-Develop\UC_F5660_main.c" 1
 100  0091              	IF (10>=6) AND (10<( 4 + __PBP__ * 2))  AND ( __PBP__ > 1 )
 100  0091              ;# 100 "C:\UC_MCU-Develop\UC_F5660_main.c" 1
 100  0091              	NOP
 100  0091              	ENDIF
 100  0091              ;# 100 "C:\UC_MCU-Develop\UC_F5660_main.c" 1
 100  0091              	IF (10>=7) AND (10<( 4 + __PBP__ * 2))  AND ( __PBP__ > 1 )
 100  0091              ;# 100 "C:\UC_MCU-Develop\UC_F5660_main.c" 1
 100  0091              	NOP
 100  0091              	ENDIF
 100  0091              ;# 100 "C:\UC_MCU-Develop\UC_F5660_main.c" 1
 100  0091              	IF (10>=8) AND (10<( 4 + __PBP__ * 2))  AND ( __PBP__ > 2 )
 100  0091              ;# 100 "C:\UC_MCU-Develop\UC_F5660_main.c" 1
 100  0091              	NOP
 100  0091              	ENDIF
 100  0091              ;# 100 "C:\UC_MCU-Develop\UC_F5660_main.c" 1
 100  0091              	IF (10==9)  AND ( __PBP__ > 2 )
 100  0091              ;# 100 "C:\UC_MCU-Develop\UC_F5660_main.c" 1
 100  0091              	NOP
 100  0091              	ENDIF
 100  0091              ;# 100 "C:\UC_MCU-Develop\UC_F5660_main.c" 1
 100  0091              	IF (10< ( 8 + __PBP__ * 2)) AND (10>( 3 + __PBP__ * 2))
 100  0091              ;# 100 "C:\UC_MCU-Develop\UC_F5660_main.c" 1
 100  0091              	fcall __DELAY3 + ( 7 + __PBP__ * 2) -10
 100  0091              	ENDIF
 100  0091              ;# 100 "C:\UC_MCU-Develop\UC_F5660_main.c" 1
 100  0091              	IF (10< ( 0404h + __PBP__ * 2)) AND (10>( 7 + __PBP__ * 2))
 100  0091              ;# 100 "C:\UC_MCU-Develop\UC_F5660_main.c" 1
 100  0091  0F01        	MOV A,(10-( 4 + __PBP__ * 2))/4
 100  0092              ;# 100 "C:\UC_MCU-Develop\UC_F5660_main.c" 1
 100  0092              	fcall __DELAYX3 + 3 -((10-( 4 + __PBP__ * 2)) MOD 4) 
 100  0099              	ENDIF
 100  0099              ;# 100 "C:\UC_MCU-Develop\UC_F5660_main.c" 1
 100  0099              	IF (10< ( 040bh + __PBP__ * 2)) AND (10> ( 0403h + __PBP__ * 2))
 100  0099              ;# 100 "C:\UC_MCU-Develop\UC_F5660_main.c" 1
 100  0099              	MOV A,0 
 100  0099              ;# 100 "C:\UC_MCU-Develop\UC_F5660_main.c" 1
 100  0099              	fcall __DELAYX6 + ( 040ah + __PBP__ * 2) -10
"File: UC_F5660_main.c  Assembler  Version HGASM0202      Page 8

 100  0099              	ENDIF
 100  0099              ;# 100 "C:\UC_MCU-Develop\UC_F5660_main.c" 1
 100  0099              	IF (10 >= ( 040bh + __PBP__ * 2)) AND ((((10-( 9 + __PBP__ * 2))%0402h)/4+1)>256)
 100  0099              ;# 100 "C:\UC_MCU-Develop\UC_F5660_main.c" 1
 100  0099              	MOV A,(10-( 9 + __PBP__ * 2))/0402h
 100  0099              ;# 100 "C:\UC_MCU-Develop\UC_F5660_main.c" 1
 100  0099              	MOV _builtin_holtek_delay_2,A
 100  0099              ;# 100 "C:\UC_MCU-Develop\UC_F5660_main.c" 1
 100  0099              	MOV A,0
 100  0099              ;# 100 "C:\UC_MCU-Develop\UC_F5660_main.c" 1
 100  0099              	fcall __DELAYY5 +5- (((10-( 9 + __PBP__ * 2))%0402h)%6) 
 100  0099              	ENDIF
 100  0099              ;# 100 "C:\UC_MCU-Develop\UC_F5660_main.c" 1
 100  0099              	IF (10 >= ( 040bh + __PBP__ * 2)) AND ((((10-( 9 + __PBP__ * 2))%0402h)/4+1)<=256)
 100  0099              ;# 100 "C:\UC_MCU-Develop\UC_F5660_main.c" 1
 100  0099              	MOV A,(10-( 9 + __PBP__ * 2))/0402h
 100  0099              ;# 100 "C:\UC_MCU-Develop\UC_F5660_main.c" 1
 100  0099              	MOV _builtin_holtek_delay_2,A
 100  0099              ;# 100 "C:\UC_MCU-Develop\UC_F5660_main.c" 1
 100  0099              	MOV A,((10-( 9 + __PBP__ * 2))%0402h)/4+1
 100  0099              ;# 100 "C:\UC_MCU-Develop\UC_F5660_main.c" 1
 100  0099              	fcall __DELAYY3 +3-(((10-( 9 + __PBP__ * 2))%0402h)%4) 
 100  0099              	ENDIF
 100  0099  1780     R  	sdz _init_HT16K33_2[0]
 100  009A  2800     R  	jmp _L10
 100  009B              _L9:
 105  009B              #line 105 "C:\UC_MCU-Develop\UC_F5660_main.c"
 105  009B              ;# 105 "C:\UC_MCU-Develop\UC_F5660_main.c" 1
 105  009B              	IF 10>263690
 105  009B              ;# 105 "C:\UC_MCU-Develop\UC_F5660_main.c" 1
 105  009B              	ERRMESSAGE 'the value 10of the argument exceeds the maxinum 263690'
 105  009B              	ENDIF
 105  009B              ;# 105 "C:\UC_MCU-Develop\UC_F5660_main.c" 1
 105  009B              	IF 10<0
 105  009B              ;# 105 "C:\UC_MCU-Develop\UC_F5660_main.c" 1
 105  009B              	ERRMESSAGE 'the value 10 of the argument exceeds the mininum 0'
 105  009B              	ENDIF
 105  009B              ;# 105 "C:\UC_MCU-Develop\UC_F5660_main.c" 1
 105  009B              	IF 10==0
 105  009B              ;# 105 "C:\UC_MCU-Develop\UC_F5660_main.c" 1
 105  009B              	JMP $
 105  009B              	ENDIF
 105  009B              ;# 105 "C:\UC_MCU-Develop\UC_F5660_main.c" 1
 105  009B              	IF (10>=1) AND (10<( 4 + __PBP__ * 2))
 105  009B              ;# 105 "C:\UC_MCU-Develop\UC_F5660_main.c" 1
 105  009B              	NOP
 105  009B              	ENDIF
 105  009B              ;# 105 "C:\UC_MCU-Develop\UC_F5660_main.c" 1
 105  009B              	IF (10>=2) AND (10<( 4 + __PBP__ * 2))
 105  009B              ;# 105 "C:\UC_MCU-Develop\UC_F5660_main.c" 1
 105  009B              	NOP
 105  009B              	ENDIF
 105  009B              ;# 105 "C:\UC_MCU-Develop\UC_F5660_main.c" 1
 105  009B              	IF (10>=3) AND (10<( 4 + __PBP__ * 2))
 105  009B              ;# 105 "C:\UC_MCU-Develop\UC_F5660_main.c" 1
 105  009B              	NOP
 105  009B              	ENDIF
 105  009B              ;# 105 "C:\UC_MCU-Develop\UC_F5660_main.c" 1
 105  009B              	IF (10>=4) AND (10<( 4 + __PBP__ * 2)) AND ( __PBP__ > 0 )
 105  009B              ;# 105 "C:\UC_MCU-Develop\UC_F5660_main.c" 1
"File: UC_F5660_main.c  Assembler  Version HGASM0202      Page 9

 105  009B              	NOP
 105  009B              	ENDIF
 105  009B              ;# 105 "C:\UC_MCU-Develop\UC_F5660_main.c" 1
 105  009B              	IF (10>=5) AND (10<( 4 + __PBP__ * 2)) AND ( __PBP__ > 0 )
 105  009B              ;# 105 "C:\UC_MCU-Develop\UC_F5660_main.c" 1
 105  009B              	NOP
 105  009B              	ENDIF
 105  009B              ;# 105 "C:\UC_MCU-Develop\UC_F5660_main.c" 1
 105  009B              	IF (10>=6) AND (10<( 4 + __PBP__ * 2))  AND ( __PBP__ > 1 )
 105  009B              ;# 105 "C:\UC_MCU-Develop\UC_F5660_main.c" 1
 105  009B              	NOP
 105  009B              	ENDIF
 105  009B              ;# 105 "C:\UC_MCU-Develop\UC_F5660_main.c" 1
 105  009B              	IF (10>=7) AND (10<( 4 + __PBP__ * 2))  AND ( __PBP__ > 1 )
 105  009B              ;# 105 "C:\UC_MCU-Develop\UC_F5660_main.c" 1
 105  009B              	NOP
 105  009B              	ENDIF
 105  009B              ;# 105 "C:\UC_MCU-Develop\UC_F5660_main.c" 1
 105  009B              	IF (10>=8) AND (10<( 4 + __PBP__ * 2))  AND ( __PBP__ > 2 )
 105  009B              ;# 105 "C:\UC_MCU-Develop\UC_F5660_main.c" 1
 105  009B              	NOP
 105  009B              	ENDIF
 105  009B              ;# 105 "C:\UC_MCU-Develop\UC_F5660_main.c" 1
 105  009B              	IF (10==9)  AND ( __PBP__ > 2 )
 105  009B              ;# 105 "C:\UC_MCU-Develop\UC_F5660_main.c" 1
 105  009B              	NOP
 105  009B              	ENDIF
 105  009B              ;# 105 "C:\UC_MCU-Develop\UC_F5660_main.c" 1
 105  009B              	IF (10< ( 8 + __PBP__ * 2)) AND (10>( 3 + __PBP__ * 2))
 105  009B              ;# 105 "C:\UC_MCU-Develop\UC_F5660_main.c" 1
 105  009B              	fcall __DELAY3 + ( 7 + __PBP__ * 2) -10
 105  009B              	ENDIF
 105  009B              ;# 105 "C:\UC_MCU-Develop\UC_F5660_main.c" 1
 105  009B              	IF (10< ( 0404h + __PBP__ * 2)) AND (10>( 7 + __PBP__ * 2))
 105  009B              ;# 105 "C:\UC_MCU-Develop\UC_F5660_main.c" 1
 105  009B  0F01        	MOV A,(10-( 4 + __PBP__ * 2))/4
 105  009C              ;# 105 "C:\UC_MCU-Develop\UC_F5660_main.c" 1
 105  009C              	fcall __DELAYX3 + 3 -((10-( 4 + __PBP__ * 2)) MOD 4) 
 105  00A3              	ENDIF
 105  00A3              ;# 105 "C:\UC_MCU-Develop\UC_F5660_main.c" 1
 105  00A3              	IF (10< ( 040bh + __PBP__ * 2)) AND (10> ( 0403h + __PBP__ * 2))
 105  00A3              ;# 105 "C:\UC_MCU-Develop\UC_F5660_main.c" 1
 105  00A3              	MOV A,0 
 105  00A3              ;# 105 "C:\UC_MCU-Develop\UC_F5660_main.c" 1
 105  00A3              	fcall __DELAYX6 + ( 040ah + __PBP__ * 2) -10
 105  00A3              	ENDIF
 105  00A3              ;# 105 "C:\UC_MCU-Develop\UC_F5660_main.c" 1
 105  00A3              	IF (10 >= ( 040bh + __PBP__ * 2)) AND ((((10-( 9 + __PBP__ * 2))%0402h)/4+1)>256)
 105  00A3              ;# 105 "C:\UC_MCU-Develop\UC_F5660_main.c" 1
 105  00A3              	MOV A,(10-( 9 + __PBP__ * 2))/0402h
 105  00A3              ;# 105 "C:\UC_MCU-Develop\UC_F5660_main.c" 1
 105  00A3              	MOV _builtin_holtek_delay_2,A
 105  00A3              ;# 105 "C:\UC_MCU-Develop\UC_F5660_main.c" 1
 105  00A3              	MOV A,0
 105  00A3              ;# 105 "C:\UC_MCU-Develop\UC_F5660_main.c" 1
 105  00A3              	fcall __DELAYY5 +5- (((10-( 9 + __PBP__ * 2))%0402h)%6) 
 105  00A3              	ENDIF
 105  00A3              ;# 105 "C:\UC_MCU-Develop\UC_F5660_main.c" 1
 105  00A3              	IF (10 >= ( 040bh + __PBP__ * 2)) AND ((((10-( 9 + __PBP__ * 2))%0402h)/4+1)<=256)
 105  00A3              ;# 105 "C:\UC_MCU-Develop\UC_F5660_main.c" 1
"File: UC_F5660_main.c  Assembler  Version HGASM0202      Page 10

 105  00A3              	MOV A,(10-( 9 + __PBP__ * 2))/0402h
 105  00A3              ;# 105 "C:\UC_MCU-Develop\UC_F5660_main.c" 1
 105  00A3              	MOV _builtin_holtek_delay_2,A
 105  00A3              ;# 105 "C:\UC_MCU-Develop\UC_F5660_main.c" 1
 105  00A3              	MOV A,((10-( 9 + __PBP__ * 2))%0402h)/4+1
 105  00A3              ;# 105 "C:\UC_MCU-Develop\UC_F5660_main.c" 1
 105  00A3              	fcall __DELAYY3 +3-(((10-( 9 + __PBP__ * 2))%0402h)%4) 
 105  00A3              	ENDIF
 105  00A3  0F05        	mov a,5
 105  00A4  0080     R  	mov _init_HT16K33_2[0],a
 105  00A5              _L14:
 112  00A5              #line 112 "C:\UC_MCU-Develop\UC_F5660_main.c"
 112  00A5              	fcall _i2c_start
 113  00AC              #line 113 "C:\UC_MCU-Develop\UC_F5660_main.c"
 113  00AC  0FE0        	mov a,224
 113  00AD              	fcall _i2c_write
 114  00B4              #line 114 "C:\UC_MCU-Develop\UC_F5660_main.c"
 114  00B4              	fcall _i2c_read_ACK
 114  00BB  0080     E  	mov ra,a
 114  00BC  1080     E  	sz ra
 114  00BD  2800     R  	jmp _L11
 117  00BE              #line 117 "C:\UC_MCU-Develop\UC_F5660_main.c"
 117  00BE  0FA1        	mov a,161
 117  00BF              	fcall _i2c_write
 118  00C6              #line 118 "C:\UC_MCU-Develop\UC_F5660_main.c"
 118  00C6              	fcall _i2c_read_ACK
 118  00CD  0080     E  	mov ra,a
 118  00CE  1080     E  	sz ra
 118  00CF  2800     R  	jmp _L16
 120  00D0              #line 120 "C:\UC_MCU-Develop\UC_F5660_main.c"
 120  00D0              	fcall _i2c_stop
 121  00D7              #line 121 "C:\UC_MCU-Develop\UC_F5660_main.c"
 121  00D7  2800     R  	jmp _L13
 121  00D8              _L11:
 129  00D8              #line 129 "C:\UC_MCU-Develop\UC_F5660_main.c"
 129  00D8              	fcall _i2c_stop
 130  00DF              #line 130 "C:\UC_MCU-Develop\UC_F5660_main.c"
 130  00DF              ;# 130 "C:\UC_MCU-Develop\UC_F5660_main.c" 1
 130  00DF              	IF 10>263690
 130  00DF              ;# 130 "C:\UC_MCU-Develop\UC_F5660_main.c" 1
 130  00DF              	ERRMESSAGE 'the value 10of the argument exceeds the maxinum 263690'
 130  00DF              	ENDIF
 130  00DF              ;# 130 "C:\UC_MCU-Develop\UC_F5660_main.c" 1
 130  00DF              	IF 10<0
 130  00DF              ;# 130 "C:\UC_MCU-Develop\UC_F5660_main.c" 1
 130  00DF              	ERRMESSAGE 'the value 10 of the argument exceeds the mininum 0'
 130  00DF              	ENDIF
 130  00DF              ;# 130 "C:\UC_MCU-Develop\UC_F5660_main.c" 1
 130  00DF              	IF 10==0
 130  00DF              ;# 130 "C:\UC_MCU-Develop\UC_F5660_main.c" 1
 130  00DF              	JMP $
 130  00DF              	ENDIF
 130  00DF              ;# 130 "C:\UC_MCU-Develop\UC_F5660_main.c" 1
 130  00DF              	IF (10>=1) AND (10<( 4 + __PBP__ * 2))
 130  00DF              ;# 130 "C:\UC_MCU-Develop\UC_F5660_main.c" 1
 130  00DF              	NOP
 130  00DF              	ENDIF
 130  00DF              ;# 130 "C:\UC_MCU-Develop\UC_F5660_main.c" 1
 130  00DF              	IF (10>=2) AND (10<( 4 + __PBP__ * 2))
 130  00DF              ;# 130 "C:\UC_MCU-Develop\UC_F5660_main.c" 1
"File: UC_F5660_main.c  Assembler  Version HGASM0202      Page 11

 130  00DF              	NOP
 130  00DF              	ENDIF
 130  00DF              ;# 130 "C:\UC_MCU-Develop\UC_F5660_main.c" 1
 130  00DF              	IF (10>=3) AND (10<( 4 + __PBP__ * 2))
 130  00DF              ;# 130 "C:\UC_MCU-Develop\UC_F5660_main.c" 1
 130  00DF              	NOP
 130  00DF              	ENDIF
 130  00DF              ;# 130 "C:\UC_MCU-Develop\UC_F5660_main.c" 1
 130  00DF              	IF (10>=4) AND (10<( 4 + __PBP__ * 2)) AND ( __PBP__ > 0 )
 130  00DF              ;# 130 "C:\UC_MCU-Develop\UC_F5660_main.c" 1
 130  00DF              	NOP
 130  00DF              	ENDIF
 130  00DF              ;# 130 "C:\UC_MCU-Develop\UC_F5660_main.c" 1
 130  00DF              	IF (10>=5) AND (10<( 4 + __PBP__ * 2)) AND ( __PBP__ > 0 )
 130  00DF              ;# 130 "C:\UC_MCU-Develop\UC_F5660_main.c" 1
 130  00DF              	NOP
 130  00DF              	ENDIF
 130  00DF              ;# 130 "C:\UC_MCU-Develop\UC_F5660_main.c" 1
 130  00DF              	IF (10>=6) AND (10<( 4 + __PBP__ * 2))  AND ( __PBP__ > 1 )
 130  00DF              ;# 130 "C:\UC_MCU-Develop\UC_F5660_main.c" 1
 130  00DF              	NOP
 130  00DF              	ENDIF
 130  00DF              ;# 130 "C:\UC_MCU-Develop\UC_F5660_main.c" 1
 130  00DF              	IF (10>=7) AND (10<( 4 + __PBP__ * 2))  AND ( __PBP__ > 1 )
 130  00DF              ;# 130 "C:\UC_MCU-Develop\UC_F5660_main.c" 1
 130  00DF              	NOP
 130  00DF              	ENDIF
 130  00DF              ;# 130 "C:\UC_MCU-Develop\UC_F5660_main.c" 1
 130  00DF              	IF (10>=8) AND (10<( 4 + __PBP__ * 2))  AND ( __PBP__ > 2 )
 130  00DF              ;# 130 "C:\UC_MCU-Develop\UC_F5660_main.c" 1
 130  00DF              	NOP
 130  00DF              	ENDIF
 130  00DF              ;# 130 "C:\UC_MCU-Develop\UC_F5660_main.c" 1
 130  00DF              	IF (10==9)  AND ( __PBP__ > 2 )
 130  00DF              ;# 130 "C:\UC_MCU-Develop\UC_F5660_main.c" 1
 130  00DF              	NOP
 130  00DF              	ENDIF
 130  00DF              ;# 130 "C:\UC_MCU-Develop\UC_F5660_main.c" 1
 130  00DF              	IF (10< ( 8 + __PBP__ * 2)) AND (10>( 3 + __PBP__ * 2))
 130  00DF              ;# 130 "C:\UC_MCU-Develop\UC_F5660_main.c" 1
 130  00DF              	fcall __DELAY3 + ( 7 + __PBP__ * 2) -10
 130  00DF              	ENDIF
 130  00DF              ;# 130 "C:\UC_MCU-Develop\UC_F5660_main.c" 1
 130  00DF              	IF (10< ( 0404h + __PBP__ * 2)) AND (10>( 7 + __PBP__ * 2))
 130  00DF              ;# 130 "C:\UC_MCU-Develop\UC_F5660_main.c" 1
 130  00DF  0F01        	MOV A,(10-( 4 + __PBP__ * 2))/4
 130  00E0              ;# 130 "C:\UC_MCU-Develop\UC_F5660_main.c" 1
 130  00E0              	fcall __DELAYX3 + 3 -((10-( 4 + __PBP__ * 2)) MOD 4) 
 130  00E7              	ENDIF
 130  00E7              ;# 130 "C:\UC_MCU-Develop\UC_F5660_main.c" 1
 130  00E7              	IF (10< ( 040bh + __PBP__ * 2)) AND (10> ( 0403h + __PBP__ * 2))
 130  00E7              ;# 130 "C:\UC_MCU-Develop\UC_F5660_main.c" 1
 130  00E7              	MOV A,0 
 130  00E7              ;# 130 "C:\UC_MCU-Develop\UC_F5660_main.c" 1
 130  00E7              	fcall __DELAYX6 + ( 040ah + __PBP__ * 2) -10
 130  00E7              	ENDIF
 130  00E7              ;# 130 "C:\UC_MCU-Develop\UC_F5660_main.c" 1
 130  00E7              	IF (10 >= ( 040bh + __PBP__ * 2)) AND ((((10-( 9 + __PBP__ * 2))%0402h)/4+1)>256)
 130  00E7              ;# 130 "C:\UC_MCU-Develop\UC_F5660_main.c" 1
 130  00E7              	MOV A,(10-( 9 + __PBP__ * 2))/0402h
"File: UC_F5660_main.c  Assembler  Version HGASM0202      Page 12

 130  00E7              ;# 130 "C:\UC_MCU-Develop\UC_F5660_main.c" 1
 130  00E7              	MOV _builtin_holtek_delay_2,A
 130  00E7              ;# 130 "C:\UC_MCU-Develop\UC_F5660_main.c" 1
 130  00E7              	MOV A,0
 130  00E7              ;# 130 "C:\UC_MCU-Develop\UC_F5660_main.c" 1
 130  00E7              	fcall __DELAYY5 +5- (((10-( 9 + __PBP__ * 2))%0402h)%6) 
 130  00E7              	ENDIF
 130  00E7              ;# 130 "C:\UC_MCU-Develop\UC_F5660_main.c" 1
 130  00E7              	IF (10 >= ( 040bh + __PBP__ * 2)) AND ((((10-( 9 + __PBP__ * 2))%0402h)/4+1)<=256)
 130  00E7              ;# 130 "C:\UC_MCU-Develop\UC_F5660_main.c" 1
 130  00E7              	MOV A,(10-( 9 + __PBP__ * 2))/0402h
 130  00E7              ;# 130 "C:\UC_MCU-Develop\UC_F5660_main.c" 1
 130  00E7              	MOV _builtin_holtek_delay_2,A
 130  00E7              ;# 130 "C:\UC_MCU-Develop\UC_F5660_main.c" 1
 130  00E7              	MOV A,((10-( 9 + __PBP__ * 2))%0402h)/4+1
 130  00E7              ;# 130 "C:\UC_MCU-Develop\UC_F5660_main.c" 1
 130  00E7              	fcall __DELAYY3 +3-(((10-( 9 + __PBP__ * 2))%0402h)%4) 
 130  00E7              	ENDIF
 130  00E7  1780     R  	sdz _init_HT16K33_2[0]
 130  00E8  2800     R  	jmp _L14
 130  00E9              _L13:
 135  00E9              #line 135 "C:\UC_MCU-Develop\UC_F5660_main.c"
 135  00E9              ;# 135 "C:\UC_MCU-Develop\UC_F5660_main.c" 1
 135  00E9              	IF 10>263690
 135  00E9              ;# 135 "C:\UC_MCU-Develop\UC_F5660_main.c" 1
 135  00E9              	ERRMESSAGE 'the value 10of the argument exceeds the maxinum 263690'
 135  00E9              	ENDIF
 135  00E9              ;# 135 "C:\UC_MCU-Develop\UC_F5660_main.c" 1
 135  00E9              	IF 10<0
 135  00E9              ;# 135 "C:\UC_MCU-Develop\UC_F5660_main.c" 1
 135  00E9              	ERRMESSAGE 'the value 10 of the argument exceeds the mininum 0'
 135  00E9              	ENDIF
 135  00E9              ;# 135 "C:\UC_MCU-Develop\UC_F5660_main.c" 1
 135  00E9              	IF 10==0
 135  00E9              ;# 135 "C:\UC_MCU-Develop\UC_F5660_main.c" 1
 135  00E9              	JMP $
 135  00E9              	ENDIF
 135  00E9              ;# 135 "C:\UC_MCU-Develop\UC_F5660_main.c" 1
 135  00E9              	IF (10>=1) AND (10<( 4 + __PBP__ * 2))
 135  00E9              ;# 135 "C:\UC_MCU-Develop\UC_F5660_main.c" 1
 135  00E9              	NOP
 135  00E9              	ENDIF
 135  00E9              ;# 135 "C:\UC_MCU-Develop\UC_F5660_main.c" 1
 135  00E9              	IF (10>=2) AND (10<( 4 + __PBP__ * 2))
 135  00E9              ;# 135 "C:\UC_MCU-Develop\UC_F5660_main.c" 1
 135  00E9              	NOP
 135  00E9              	ENDIF
 135  00E9              ;# 135 "C:\UC_MCU-Develop\UC_F5660_main.c" 1
 135  00E9              	IF (10>=3) AND (10<( 4 + __PBP__ * 2))
 135  00E9              ;# 135 "C:\UC_MCU-Develop\UC_F5660_main.c" 1
 135  00E9              	NOP
 135  00E9              	ENDIF
 135  00E9              ;# 135 "C:\UC_MCU-Develop\UC_F5660_main.c" 1
 135  00E9              	IF (10>=4) AND (10<( 4 + __PBP__ * 2)) AND ( __PBP__ > 0 )
 135  00E9              ;# 135 "C:\UC_MCU-Develop\UC_F5660_main.c" 1
 135  00E9              	NOP
 135  00E9              	ENDIF
 135  00E9              ;# 135 "C:\UC_MCU-Develop\UC_F5660_main.c" 1
 135  00E9              	IF (10>=5) AND (10<( 4 + __PBP__ * 2)) AND ( __PBP__ > 0 )
 135  00E9              ;# 135 "C:\UC_MCU-Develop\UC_F5660_main.c" 1
"File: UC_F5660_main.c  Assembler  Version HGASM0202      Page 13

 135  00E9              	NOP
 135  00E9              	ENDIF
 135  00E9              ;# 135 "C:\UC_MCU-Develop\UC_F5660_main.c" 1
 135  00E9              	IF (10>=6) AND (10<( 4 + __PBP__ * 2))  AND ( __PBP__ > 1 )
 135  00E9              ;# 135 "C:\UC_MCU-Develop\UC_F5660_main.c" 1
 135  00E9              	NOP
 135  00E9              	ENDIF
 135  00E9              ;# 135 "C:\UC_MCU-Develop\UC_F5660_main.c" 1
 135  00E9              	IF (10>=7) AND (10<( 4 + __PBP__ * 2))  AND ( __PBP__ > 1 )
 135  00E9              ;# 135 "C:\UC_MCU-Develop\UC_F5660_main.c" 1
 135  00E9              	NOP
 135  00E9              	ENDIF
 135  00E9              ;# 135 "C:\UC_MCU-Develop\UC_F5660_main.c" 1
 135  00E9              	IF (10>=8) AND (10<( 4 + __PBP__ * 2))  AND ( __PBP__ > 2 )
 135  00E9              ;# 135 "C:\UC_MCU-Develop\UC_F5660_main.c" 1
 135  00E9              	NOP
 135  00E9              	ENDIF
 135  00E9              ;# 135 "C:\UC_MCU-Develop\UC_F5660_main.c" 1
 135  00E9              	IF (10==9)  AND ( __PBP__ > 2 )
 135  00E9              ;# 135 "C:\UC_MCU-Develop\UC_F5660_main.c" 1
 135  00E9              	NOP
 135  00E9              	ENDIF
 135  00E9              ;# 135 "C:\UC_MCU-Develop\UC_F5660_main.c" 1
 135  00E9              	IF (10< ( 8 + __PBP__ * 2)) AND (10>( 3 + __PBP__ * 2))
 135  00E9              ;# 135 "C:\UC_MCU-Develop\UC_F5660_main.c" 1
 135  00E9              	fcall __DELAY3 + ( 7 + __PBP__ * 2) -10
 135  00E9              	ENDIF
 135  00E9              ;# 135 "C:\UC_MCU-Develop\UC_F5660_main.c" 1
 135  00E9              	IF (10< ( 0404h + __PBP__ * 2)) AND (10>( 7 + __PBP__ * 2))
 135  00E9              ;# 135 "C:\UC_MCU-Develop\UC_F5660_main.c" 1
 135  00E9  0F01        	MOV A,(10-( 4 + __PBP__ * 2))/4
 135  00EA              ;# 135 "C:\UC_MCU-Develop\UC_F5660_main.c" 1
 135  00EA              	fcall __DELAYX3 + 3 -((10-( 4 + __PBP__ * 2)) MOD 4) 
 135  00F1              	ENDIF
 135  00F1              ;# 135 "C:\UC_MCU-Develop\UC_F5660_main.c" 1
 135  00F1              	IF (10< ( 040bh + __PBP__ * 2)) AND (10> ( 0403h + __PBP__ * 2))
 135  00F1              ;# 135 "C:\UC_MCU-Develop\UC_F5660_main.c" 1
 135  00F1              	MOV A,0 
 135  00F1              ;# 135 "C:\UC_MCU-Develop\UC_F5660_main.c" 1
 135  00F1              	fcall __DELAYX6 + ( 040ah + __PBP__ * 2) -10
 135  00F1              	ENDIF
 135  00F1              ;# 135 "C:\UC_MCU-Develop\UC_F5660_main.c" 1
 135  00F1              	IF (10 >= ( 040bh + __PBP__ * 2)) AND ((((10-( 9 + __PBP__ * 2))%0402h)/4+1)>256)
 135  00F1              ;# 135 "C:\UC_MCU-Develop\UC_F5660_main.c" 1
 135  00F1              	MOV A,(10-( 9 + __PBP__ * 2))/0402h
 135  00F1              ;# 135 "C:\UC_MCU-Develop\UC_F5660_main.c" 1
 135  00F1              	MOV _builtin_holtek_delay_2,A
 135  00F1              ;# 135 "C:\UC_MCU-Develop\UC_F5660_main.c" 1
 135  00F1              	MOV A,0
 135  00F1              ;# 135 "C:\UC_MCU-Develop\UC_F5660_main.c" 1
 135  00F1              	fcall __DELAYY5 +5- (((10-( 9 + __PBP__ * 2))%0402h)%6) 
 135  00F1              	ENDIF
 135  00F1              ;# 135 "C:\UC_MCU-Develop\UC_F5660_main.c" 1
 135  00F1              	IF (10 >= ( 040bh + __PBP__ * 2)) AND ((((10-( 9 + __PBP__ * 2))%0402h)/4+1)<=256)
 135  00F1              ;# 135 "C:\UC_MCU-Develop\UC_F5660_main.c" 1
 135  00F1              	MOV A,(10-( 9 + __PBP__ * 2))/0402h
 135  00F1              ;# 135 "C:\UC_MCU-Develop\UC_F5660_main.c" 1
 135  00F1              	MOV _builtin_holtek_delay_2,A
 135  00F1              ;# 135 "C:\UC_MCU-Develop\UC_F5660_main.c" 1
 135  00F1              	MOV A,((10-( 9 + __PBP__ * 2))%0402h)/4+1
"File: UC_F5660_main.c  Assembler  Version HGASM0202      Page 14

 135  00F1              ;# 135 "C:\UC_MCU-Develop\UC_F5660_main.c" 1
 135  00F1              	fcall __DELAYY3 +3-(((10-( 9 + __PBP__ * 2))%0402h)%4) 
 135  00F1              	ENDIF
 135  00F1  0F05        	mov a,5
 135  00F2  0080     R  	mov _init_HT16K33_2[0],a
 135  00F3              _L18:
 143  00F3              #line 143 "C:\UC_MCU-Develop\UC_F5660_main.c"
 143  00F3              	fcall _i2c_start
 144  00FA              #line 144 "C:\UC_MCU-Develop\UC_F5660_main.c"
 144  00FA  0FE0        	mov a,224
 144  00FB              	fcall _i2c_write
 145  0102              #line 145 "C:\UC_MCU-Develop\UC_F5660_main.c"
 145  0102              	fcall _i2c_read_ACK
 145  0109  0080     E  	mov ra,a
 145  010A  1080     E  	sz ra
 145  010B  2800     R  	jmp _L15
 148  010C              #line 148 "C:\UC_MCU-Develop\UC_F5660_main.c"
 148  010C  0F81        	mov a,129
 148  010D              	fcall _i2c_write
 149  0114              #line 149 "C:\UC_MCU-Develop\UC_F5660_main.c"
 149  0114              	fcall _i2c_read_ACK
 149  011B              _L16:
 154  011B              #line 154 "C:\UC_MCU-Develop\UC_F5660_main.c"
 154  011B              	fcall _i2c_stop
 154  0122  2800     R  	jmp _L17
 154  0123              _L15:
 160  0123              #line 160 "C:\UC_MCU-Develop\UC_F5660_main.c"
 160  0123              	fcall _i2c_stop
 161  012A              #line 161 "C:\UC_MCU-Develop\UC_F5660_main.c"
 161  012A              ;# 161 "C:\UC_MCU-Develop\UC_F5660_main.c" 1
 161  012A              	IF 10>263690
 161  012A              ;# 161 "C:\UC_MCU-Develop\UC_F5660_main.c" 1
 161  012A              	ERRMESSAGE 'the value 10of the argument exceeds the maxinum 263690'
 161  012A              	ENDIF
 161  012A              ;# 161 "C:\UC_MCU-Develop\UC_F5660_main.c" 1
 161  012A              	IF 10<0
 161  012A              ;# 161 "C:\UC_MCU-Develop\UC_F5660_main.c" 1
 161  012A              	ERRMESSAGE 'the value 10 of the argument exceeds the mininum 0'
 161  012A              	ENDIF
 161  012A              ;# 161 "C:\UC_MCU-Develop\UC_F5660_main.c" 1
 161  012A              	IF 10==0
 161  012A              ;# 161 "C:\UC_MCU-Develop\UC_F5660_main.c" 1
 161  012A              	JMP $
 161  012A              	ENDIF
 161  012A              ;# 161 "C:\UC_MCU-Develop\UC_F5660_main.c" 1
 161  012A              	IF (10>=1) AND (10<( 4 + __PBP__ * 2))
 161  012A              ;# 161 "C:\UC_MCU-Develop\UC_F5660_main.c" 1
 161  012A              	NOP
 161  012A              	ENDIF
 161  012A              ;# 161 "C:\UC_MCU-Develop\UC_F5660_main.c" 1
 161  012A              	IF (10>=2) AND (10<( 4 + __PBP__ * 2))
 161  012A              ;# 161 "C:\UC_MCU-Develop\UC_F5660_main.c" 1
 161  012A              	NOP
 161  012A              	ENDIF
 161  012A              ;# 161 "C:\UC_MCU-Develop\UC_F5660_main.c" 1
 161  012A              	IF (10>=3) AND (10<( 4 + __PBP__ * 2))
 161  012A              ;# 161 "C:\UC_MCU-Develop\UC_F5660_main.c" 1
 161  012A              	NOP
 161  012A              	ENDIF
 161  012A              ;# 161 "C:\UC_MCU-Develop\UC_F5660_main.c" 1
"File: UC_F5660_main.c  Assembler  Version HGASM0202      Page 15

 161  012A              	IF (10>=4) AND (10<( 4 + __PBP__ * 2)) AND ( __PBP__ > 0 )
 161  012A              ;# 161 "C:\UC_MCU-Develop\UC_F5660_main.c" 1
 161  012A              	NOP
 161  012A              	ENDIF
 161  012A              ;# 161 "C:\UC_MCU-Develop\UC_F5660_main.c" 1
 161  012A              	IF (10>=5) AND (10<( 4 + __PBP__ * 2)) AND ( __PBP__ > 0 )
 161  012A              ;# 161 "C:\UC_MCU-Develop\UC_F5660_main.c" 1
 161  012A              	NOP
 161  012A              	ENDIF
 161  012A              ;# 161 "C:\UC_MCU-Develop\UC_F5660_main.c" 1
 161  012A              	IF (10>=6) AND (10<( 4 + __PBP__ * 2))  AND ( __PBP__ > 1 )
 161  012A              ;# 161 "C:\UC_MCU-Develop\UC_F5660_main.c" 1
 161  012A              	NOP
 161  012A              	ENDIF
 161  012A              ;# 161 "C:\UC_MCU-Develop\UC_F5660_main.c" 1
 161  012A              	IF (10>=7) AND (10<( 4 + __PBP__ * 2))  AND ( __PBP__ > 1 )
 161  012A              ;# 161 "C:\UC_MCU-Develop\UC_F5660_main.c" 1
 161  012A              	NOP
 161  012A              	ENDIF
 161  012A              ;# 161 "C:\UC_MCU-Develop\UC_F5660_main.c" 1
 161  012A              	IF (10>=8) AND (10<( 4 + __PBP__ * 2))  AND ( __PBP__ > 2 )
 161  012A              ;# 161 "C:\UC_MCU-Develop\UC_F5660_main.c" 1
 161  012A              	NOP
 161  012A              	ENDIF
 161  012A              ;# 161 "C:\UC_MCU-Develop\UC_F5660_main.c" 1
 161  012A              	IF (10==9)  AND ( __PBP__ > 2 )
 161  012A              ;# 161 "C:\UC_MCU-Develop\UC_F5660_main.c" 1
 161  012A              	NOP
 161  012A              	ENDIF
 161  012A              ;# 161 "C:\UC_MCU-Develop\UC_F5660_main.c" 1
 161  012A              	IF (10< ( 8 + __PBP__ * 2)) AND (10>( 3 + __PBP__ * 2))
 161  012A              ;# 161 "C:\UC_MCU-Develop\UC_F5660_main.c" 1
 161  012A              	fcall __DELAY3 + ( 7 + __PBP__ * 2) -10
 161  012A              	ENDIF
 161  012A              ;# 161 "C:\UC_MCU-Develop\UC_F5660_main.c" 1
 161  012A              	IF (10< ( 0404h + __PBP__ * 2)) AND (10>( 7 + __PBP__ * 2))
 161  012A              ;# 161 "C:\UC_MCU-Develop\UC_F5660_main.c" 1
 161  012A  0F01        	MOV A,(10-( 4 + __PBP__ * 2))/4
 161  012B              ;# 161 "C:\UC_MCU-Develop\UC_F5660_main.c" 1
 161  012B              	fcall __DELAYX3 + 3 -((10-( 4 + __PBP__ * 2)) MOD 4) 
 161  0132              	ENDIF
 161  0132              ;# 161 "C:\UC_MCU-Develop\UC_F5660_main.c" 1
 161  0132              	IF (10< ( 040bh + __PBP__ * 2)) AND (10> ( 0403h + __PBP__ * 2))
 161  0132              ;# 161 "C:\UC_MCU-Develop\UC_F5660_main.c" 1
 161  0132              	MOV A,0 
 161  0132              ;# 161 "C:\UC_MCU-Develop\UC_F5660_main.c" 1
 161  0132              	fcall __DELAYX6 + ( 040ah + __PBP__ * 2) -10
 161  0132              	ENDIF
 161  0132              ;# 161 "C:\UC_MCU-Develop\UC_F5660_main.c" 1
 161  0132              	IF (10 >= ( 040bh + __PBP__ * 2)) AND ((((10-( 9 + __PBP__ * 2))%0402h)/4+1)>256)
 161  0132              ;# 161 "C:\UC_MCU-Develop\UC_F5660_main.c" 1
 161  0132              	MOV A,(10-( 9 + __PBP__ * 2))/0402h
 161  0132              ;# 161 "C:\UC_MCU-Develop\UC_F5660_main.c" 1
 161  0132              	MOV _builtin_holtek_delay_2,A
 161  0132              ;# 161 "C:\UC_MCU-Develop\UC_F5660_main.c" 1
 161  0132              	MOV A,0
 161  0132              ;# 161 "C:\UC_MCU-Develop\UC_F5660_main.c" 1
 161  0132              	fcall __DELAYY5 +5- (((10-( 9 + __PBP__ * 2))%0402h)%6) 
 161  0132              	ENDIF
 161  0132              ;# 161 "C:\UC_MCU-Develop\UC_F5660_main.c" 1
"File: UC_F5660_main.c  Assembler  Version HGASM0202      Page 16

 161  0132              	IF (10 >= ( 040bh + __PBP__ * 2)) AND ((((10-( 9 + __PBP__ * 2))%0402h)/4+1)<=256)
 161  0132              ;# 161 "C:\UC_MCU-Develop\UC_F5660_main.c" 1
 161  0132              	MOV A,(10-( 9 + __PBP__ * 2))/0402h
 161  0132              ;# 161 "C:\UC_MCU-Develop\UC_F5660_main.c" 1
 161  0132              	MOV _builtin_holtek_delay_2,A
 161  0132              ;# 161 "C:\UC_MCU-Develop\UC_F5660_main.c" 1
 161  0132              	MOV A,((10-( 9 + __PBP__ * 2))%0402h)/4+1
 161  0132              ;# 161 "C:\UC_MCU-Develop\UC_F5660_main.c" 1
 161  0132              	fcall __DELAYY3 +3-(((10-( 9 + __PBP__ * 2))%0402h)%4) 
 161  0132              	ENDIF
 161  0132  1780     R  	sdz _init_HT16K33_2[0]
 161  0133  2800     R  	jmp _L18
 161  0134              _L17:
 166  0134              #line 166 "C:\UC_MCU-Develop\UC_F5660_main.c"
 166  0134              ;# 166 "C:\UC_MCU-Develop\UC_F5660_main.c" 1
 166  0134              	IF 10>263690
 166  0134              ;# 166 "C:\UC_MCU-Develop\UC_F5660_main.c" 1
 166  0134              	ERRMESSAGE 'the value 10of the argument exceeds the maxinum 263690'
 166  0134              	ENDIF
 166  0134              ;# 166 "C:\UC_MCU-Develop\UC_F5660_main.c" 1
 166  0134              	IF 10<0
 166  0134              ;# 166 "C:\UC_MCU-Develop\UC_F5660_main.c" 1
 166  0134              	ERRMESSAGE 'the value 10 of the argument exceeds the mininum 0'
 166  0134              	ENDIF
 166  0134              ;# 166 "C:\UC_MCU-Develop\UC_F5660_main.c" 1
 166  0134              	IF 10==0
 166  0134              ;# 166 "C:\UC_MCU-Develop\UC_F5660_main.c" 1
 166  0134              	JMP $
 166  0134              	ENDIF
 166  0134              ;# 166 "C:\UC_MCU-Develop\UC_F5660_main.c" 1
 166  0134              	IF (10>=1) AND (10<( 4 + __PBP__ * 2))
 166  0134              ;# 166 "C:\UC_MCU-Develop\UC_F5660_main.c" 1
 166  0134              	NOP
 166  0134              	ENDIF
 166  0134              ;# 166 "C:\UC_MCU-Develop\UC_F5660_main.c" 1
 166  0134              	IF (10>=2) AND (10<( 4 + __PBP__ * 2))
 166  0134              ;# 166 "C:\UC_MCU-Develop\UC_F5660_main.c" 1
 166  0134              	NOP
 166  0134              	ENDIF
 166  0134              ;# 166 "C:\UC_MCU-Develop\UC_F5660_main.c" 1
 166  0134              	IF (10>=3) AND (10<( 4 + __PBP__ * 2))
 166  0134              ;# 166 "C:\UC_MCU-Develop\UC_F5660_main.c" 1
 166  0134              	NOP
 166  0134              	ENDIF
 166  0134              ;# 166 "C:\UC_MCU-Develop\UC_F5660_main.c" 1
 166  0134              	IF (10>=4) AND (10<( 4 + __PBP__ * 2)) AND ( __PBP__ > 0 )
 166  0134              ;# 166 "C:\UC_MCU-Develop\UC_F5660_main.c" 1
 166  0134              	NOP
 166  0134              	ENDIF
 166  0134              ;# 166 "C:\UC_MCU-Develop\UC_F5660_main.c" 1
 166  0134              	IF (10>=5) AND (10<( 4 + __PBP__ * 2)) AND ( __PBP__ > 0 )
 166  0134              ;# 166 "C:\UC_MCU-Develop\UC_F5660_main.c" 1
 166  0134              	NOP
 166  0134              	ENDIF
 166  0134              ;# 166 "C:\UC_MCU-Develop\UC_F5660_main.c" 1
 166  0134              	IF (10>=6) AND (10<( 4 + __PBP__ * 2))  AND ( __PBP__ > 1 )
 166  0134              ;# 166 "C:\UC_MCU-Develop\UC_F5660_main.c" 1
 166  0134              	NOP
 166  0134              	ENDIF
 166  0134              ;# 166 "C:\UC_MCU-Develop\UC_F5660_main.c" 1
"File: UC_F5660_main.c  Assembler  Version HGASM0202      Page 17

 166  0134              	IF (10>=7) AND (10<( 4 + __PBP__ * 2))  AND ( __PBP__ > 1 )
 166  0134              ;# 166 "C:\UC_MCU-Develop\UC_F5660_main.c" 1
 166  0134              	NOP
 166  0134              	ENDIF
 166  0134              ;# 166 "C:\UC_MCU-Develop\UC_F5660_main.c" 1
 166  0134              	IF (10>=8) AND (10<( 4 + __PBP__ * 2))  AND ( __PBP__ > 2 )
 166  0134              ;# 166 "C:\UC_MCU-Develop\UC_F5660_main.c" 1
 166  0134              	NOP
 166  0134              	ENDIF
 166  0134              ;# 166 "C:\UC_MCU-Develop\UC_F5660_main.c" 1
 166  0134              	IF (10==9)  AND ( __PBP__ > 2 )
 166  0134              ;# 166 "C:\UC_MCU-Develop\UC_F5660_main.c" 1
 166  0134              	NOP
 166  0134              	ENDIF
 166  0134              ;# 166 "C:\UC_MCU-Develop\UC_F5660_main.c" 1
 166  0134              	IF (10< ( 8 + __PBP__ * 2)) AND (10>( 3 + __PBP__ * 2))
 166  0134              ;# 166 "C:\UC_MCU-Develop\UC_F5660_main.c" 1
 166  0134              	fcall __DELAY3 + ( 7 + __PBP__ * 2) -10
 166  0134              	ENDIF
 166  0134              ;# 166 "C:\UC_MCU-Develop\UC_F5660_main.c" 1
 166  0134              	IF (10< ( 0404h + __PBP__ * 2)) AND (10>( 7 + __PBP__ * 2))
 166  0134              ;# 166 "C:\UC_MCU-Develop\UC_F5660_main.c" 1
 166  0134  0F01        	MOV A,(10-( 4 + __PBP__ * 2))/4
 166  0135              ;# 166 "C:\UC_MCU-Develop\UC_F5660_main.c" 1
 166  0135              	fcall __DELAYX3 + 3 -((10-( 4 + __PBP__ * 2)) MOD 4) 
 166  013C              	ENDIF
 166  013C              ;# 166 "C:\UC_MCU-Develop\UC_F5660_main.c" 1
 166  013C              	IF (10< ( 040bh + __PBP__ * 2)) AND (10> ( 0403h + __PBP__ * 2))
 166  013C              ;# 166 "C:\UC_MCU-Develop\UC_F5660_main.c" 1
 166  013C              	MOV A,0 
 166  013C              ;# 166 "C:\UC_MCU-Develop\UC_F5660_main.c" 1
 166  013C              	fcall __DELAYX6 + ( 040ah + __PBP__ * 2) -10
 166  013C              	ENDIF
 166  013C              ;# 166 "C:\UC_MCU-Develop\UC_F5660_main.c" 1
 166  013C              	IF (10 >= ( 040bh + __PBP__ * 2)) AND ((((10-( 9 + __PBP__ * 2))%0402h)/4+1)>256)
 166  013C              ;# 166 "C:\UC_MCU-Develop\UC_F5660_main.c" 1
 166  013C              	MOV A,(10-( 9 + __PBP__ * 2))/0402h
 166  013C              ;# 166 "C:\UC_MCU-Develop\UC_F5660_main.c" 1
 166  013C              	MOV _builtin_holtek_delay_2,A
 166  013C              ;# 166 "C:\UC_MCU-Develop\UC_F5660_main.c" 1
 166  013C              	MOV A,0
 166  013C              ;# 166 "C:\UC_MCU-Develop\UC_F5660_main.c" 1
 166  013C              	fcall __DELAYY5 +5- (((10-( 9 + __PBP__ * 2))%0402h)%6) 
 166  013C              	ENDIF
 166  013C              ;# 166 "C:\UC_MCU-Develop\UC_F5660_main.c" 1
 166  013C              	IF (10 >= ( 040bh + __PBP__ * 2)) AND ((((10-( 9 + __PBP__ * 2))%0402h)/4+1)<=256)
 166  013C              ;# 166 "C:\UC_MCU-Develop\UC_F5660_main.c" 1
 166  013C              	MOV A,(10-( 9 + __PBP__ * 2))/0402h
 166  013C              ;# 166 "C:\UC_MCU-Develop\UC_F5660_main.c" 1
 166  013C              	MOV _builtin_holtek_delay_2,A
 166  013C              ;# 166 "C:\UC_MCU-Develop\UC_F5660_main.c" 1
 166  013C              	MOV A,((10-( 9 + __PBP__ * 2))%0402h)/4+1
 166  013C              ;# 166 "C:\UC_MCU-Develop\UC_F5660_main.c" 1
 166  013C              	fcall __DELAYY3 +3-(((10-( 9 + __PBP__ * 2))%0402h)%4) 
 166  013C              	ENDIF
 166  013C  0003        	ret
 166  013D              _init_HT16K33 endp
 166  013D              #line 166 "C:\UC_MCU-Develop\UC_F5660_main.c"
 166  013D              #pragma debug scope 1 1
 166  013D              public _UC_HT16K33
"File: UC_F5660_main.c  Assembler  Version HGASM0202      Page 18

 166  013D              #pragma debug scope 3 1
  38  013D              #line 38 "C:\UC_MCU-Develop\UC_F5660_main.c"
  38  0000              _UC_HT16K33 .section 'code'
  38  0000              _UC_HT16K33 proc
  39  0000              #line 39 "C:\UC_MCU-Develop\UC_F5660_main.c"
  39  0000              	fcall _init_HT16K33
  40  0007              #line 40 "C:\UC_MCU-Develop\UC_F5660_main.c"
  40  0007              ;# 40 "C:\UC_MCU-Develop\UC_F5660_main.c" 1
  40  0007              	IF 20>263690
  40  0007              ;# 40 "C:\UC_MCU-Develop\UC_F5660_main.c" 1
  40  0007              	ERRMESSAGE 'the value 20of the argument exceeds the maxinum 263690'
  40  0007              	ENDIF
  40  0007              ;# 40 "C:\UC_MCU-Develop\UC_F5660_main.c" 1
  40  0007              	IF 20<0
  40  0007              ;# 40 "C:\UC_MCU-Develop\UC_F5660_main.c" 1
  40  0007              	ERRMESSAGE 'the value 20 of the argument exceeds the mininum 0'
  40  0007              	ENDIF
  40  0007              ;# 40 "C:\UC_MCU-Develop\UC_F5660_main.c" 1
  40  0007              	IF 20==0
  40  0007              ;# 40 "C:\UC_MCU-Develop\UC_F5660_main.c" 1
  40  0007              	JMP $
  40  0007              	ENDIF
  40  0007              ;# 40 "C:\UC_MCU-Develop\UC_F5660_main.c" 1
  40  0007              	IF (20>=1) AND (20<( 4 + __PBP__ * 2))
  40  0007              ;# 40 "C:\UC_MCU-Develop\UC_F5660_main.c" 1
  40  0007              	NOP
  40  0007              	ENDIF
  40  0007              ;# 40 "C:\UC_MCU-Develop\UC_F5660_main.c" 1
  40  0007              	IF (20>=2) AND (20<( 4 + __PBP__ * 2))
  40  0007              ;# 40 "C:\UC_MCU-Develop\UC_F5660_main.c" 1
  40  0007              	NOP
  40  0007              	ENDIF
  40  0007              ;# 40 "C:\UC_MCU-Develop\UC_F5660_main.c" 1
  40  0007              	IF (20>=3) AND (20<( 4 + __PBP__ * 2))
  40  0007              ;# 40 "C:\UC_MCU-Develop\UC_F5660_main.c" 1
  40  0007              	NOP
  40  0007              	ENDIF
  40  0007              ;# 40 "C:\UC_MCU-Develop\UC_F5660_main.c" 1
  40  0007              	IF (20>=4) AND (20<( 4 + __PBP__ * 2)) AND ( __PBP__ > 0 )
  40  0007              ;# 40 "C:\UC_MCU-Develop\UC_F5660_main.c" 1
  40  0007              	NOP
  40  0007              	ENDIF
  40  0007              ;# 40 "C:\UC_MCU-Develop\UC_F5660_main.c" 1
  40  0007              	IF (20>=5) AND (20<( 4 + __PBP__ * 2)) AND ( __PBP__ > 0 )
  40  0007              ;# 40 "C:\UC_MCU-Develop\UC_F5660_main.c" 1
  40  0007              	NOP
  40  0007              	ENDIF
  40  0007              ;# 40 "C:\UC_MCU-Develop\UC_F5660_main.c" 1
  40  0007              	IF (20>=6) AND (20<( 4 + __PBP__ * 2))  AND ( __PBP__ > 1 )
  40  0007              ;# 40 "C:\UC_MCU-Develop\UC_F5660_main.c" 1
  40  0007              	NOP
  40  0007              	ENDIF
  40  0007              ;# 40 "C:\UC_MCU-Develop\UC_F5660_main.c" 1
  40  0007              	IF (20>=7) AND (20<( 4 + __PBP__ * 2))  AND ( __PBP__ > 1 )
  40  0007              ;# 40 "C:\UC_MCU-Develop\UC_F5660_main.c" 1
  40  0007              	NOP
  40  0007              	ENDIF
  40  0007              ;# 40 "C:\UC_MCU-Develop\UC_F5660_main.c" 1
  40  0007              	IF (20>=8) AND (20<( 4 + __PBP__ * 2))  AND ( __PBP__ > 2 )
  40  0007              ;# 40 "C:\UC_MCU-Develop\UC_F5660_main.c" 1
"File: UC_F5660_main.c  Assembler  Version HGASM0202      Page 19

  40  0007              	NOP
  40  0007              	ENDIF
  40  0007              ;# 40 "C:\UC_MCU-Develop\UC_F5660_main.c" 1
  40  0007              	IF (20==9)  AND ( __PBP__ > 2 )
  40  0007              ;# 40 "C:\UC_MCU-Develop\UC_F5660_main.c" 1
  40  0007              	NOP
  40  0007              	ENDIF
  40  0007              ;# 40 "C:\UC_MCU-Develop\UC_F5660_main.c" 1
  40  0007              	IF (20< ( 8 + __PBP__ * 2)) AND (20>( 3 + __PBP__ * 2))
  40  0007              ;# 40 "C:\UC_MCU-Develop\UC_F5660_main.c" 1
  40  0007              	fcall __DELAY3 + ( 7 + __PBP__ * 2) -20
  40  0007              	ENDIF
  40  0007              ;# 40 "C:\UC_MCU-Develop\UC_F5660_main.c" 1
  40  0007              	IF (20< ( 0404h + __PBP__ * 2)) AND (20>( 7 + __PBP__ * 2))
  40  0007              ;# 40 "C:\UC_MCU-Develop\UC_F5660_main.c" 1
  40  0007  0F03        	MOV A,(20-( 4 + __PBP__ * 2))/4
  40  0008              ;# 40 "C:\UC_MCU-Develop\UC_F5660_main.c" 1
  40  0008              	fcall __DELAYX3 + 3 -((20-( 4 + __PBP__ * 2)) MOD 4) 
  40  000F              	ENDIF
  40  000F              ;# 40 "C:\UC_MCU-Develop\UC_F5660_main.c" 1
  40  000F              	IF (20< ( 040bh + __PBP__ * 2)) AND (20> ( 0403h + __PBP__ * 2))
  40  000F              ;# 40 "C:\UC_MCU-Develop\UC_F5660_main.c" 1
  40  000F              	MOV A,0 
  40  000F              ;# 40 "C:\UC_MCU-Develop\UC_F5660_main.c" 1
  40  000F              	fcall __DELAYX6 + ( 040ah + __PBP__ * 2) -20
  40  000F              	ENDIF
  40  000F              ;# 40 "C:\UC_MCU-Develop\UC_F5660_main.c" 1
  40  000F              	IF (20 >= ( 040bh + __PBP__ * 2)) AND ((((20-( 9 + __PBP__ * 2))%0402h)/4+1)>256)
  40  000F              ;# 40 "C:\UC_MCU-Develop\UC_F5660_main.c" 1
  40  000F              	MOV A,(20-( 9 + __PBP__ * 2))/0402h
  40  000F              ;# 40 "C:\UC_MCU-Develop\UC_F5660_main.c" 1
  40  000F              	MOV _builtin_holtek_delay_2,A
  40  000F              ;# 40 "C:\UC_MCU-Develop\UC_F5660_main.c" 1
  40  000F              	MOV A,0
  40  000F              ;# 40 "C:\UC_MCU-Develop\UC_F5660_main.c" 1
  40  000F              	fcall __DELAYY5 +5- (((20-( 9 + __PBP__ * 2))%0402h)%6) 
  40  000F              	ENDIF
  40  000F              ;# 40 "C:\UC_MCU-Develop\UC_F5660_main.c" 1
  40  000F              	IF (20 >= ( 040bh + __PBP__ * 2)) AND ((((20-( 9 + __PBP__ * 2))%0402h)/4+1)<=256)
  40  000F              ;# 40 "C:\UC_MCU-Develop\UC_F5660_main.c" 1
  40  000F              	MOV A,(20-( 9 + __PBP__ * 2))/0402h
  40  000F              ;# 40 "C:\UC_MCU-Develop\UC_F5660_main.c" 1
  40  000F              	MOV _builtin_holtek_delay_2,A
  40  000F              ;# 40 "C:\UC_MCU-Develop\UC_F5660_main.c" 1
  40  000F              	MOV A,((20-( 9 + __PBP__ * 2))%0402h)/4+1
  40  000F              ;# 40 "C:\UC_MCU-Develop\UC_F5660_main.c" 1
  40  000F              	fcall __DELAYY3 +3-(((20-( 9 + __PBP__ * 2))%0402h)%4) 
  40  000F              	ENDIF
  40  000F  0003        	ret
  40  0010              _UC_HT16K33 endp
  40  0010              #line 40 "C:\UC_MCU-Develop\UC_F5660_main.c"
  40  0010              #pragma debug scope 1 1
  40  0010              public _clear
  40  0010              #pragma debug scope 4 1
 207  0010              #line 207 "C:\UC_MCU-Develop\UC_F5660_main.c"
 207  0000              _clear .section 'code'
 207  0000              _clear proc
 209  0000              #line 209 "C:\UC_MCU-Develop\UC_F5660_main.c"
 209  0000  1F00     E  	clr rb
 209  0001  1F00     E  	clr rc
"File: UC_F5660_main.c  Assembler  Version HGASM0202      Page 20

 209  0002              _L35:
 209  0002  340A        	clr c
 209  0003  1A00     E  	rlca rb
 209  0004  0080     E  	mov rd,a
 209  0005  1A00     E  	rlca rc
 209  0006  0080     E  	mov re,a
 211  0007              #line 211 "C:\UC_MCU-Develop\UC_F5660_main.c"
 211  0007  0F00     R  	mov a,low offset _display_Buffer
 211  0008  0300     E  	add a,rd
 211  0009  0083        	mov mp,a
 211  000A  0F00     R  	mov a,high offset _display_Buffer
 211  000B  1300     E  	adc a,re
 211  000C  0084        	mov sbp,a
 211  000D  1F02        	clr ir
 211  000E  1483        	inc mp
 211  000F  1F02        	clr ir
 209  0010              #line 209 "C:\UC_MCU-Develop\UC_F5660_main.c"
 209  0010  1480     E  	inc rb
 209  0011  3D0A        	sz z
 209  0012  1480     E  	inc rc
 209  0013  0700     E  	mov a,rb
 209  0014  0C08        	xor a,8
 209  0015  0500     E  	or a,rc
 209  0016  390A        	snz z
 209  0017  2800     R  	jmp _L35
 209  0018  0003        	ret
 209  0019              _clear endp
 209  0019              #line 209 "C:\UC_MCU-Develop\UC_F5660_main.c"
 209  0019              #pragma debug scope 1 1
 209  0019              public _show
 209  0019              #pragma debug scope 5 1
 219  0019              #line 219 "C:\UC_MCU-Develop\UC_F5660_main.c"
 219  0000              _show .section 'code'
 219  0000              _show proc
 220  0000              #line 220 "C:\UC_MCU-Develop\UC_F5660_main.c"
 220  0000  0F05        	mov a,5
 220  0001  0080     R  	mov _CheckAddressCnt[0],a
 220  0002              _L37:
 222  0002              #line 222 "C:\UC_MCU-Develop\UC_F5660_main.c"
 222  0002  1E00     R  	snz _CheckAddressCnt[0]
 222  0003  2800     R  	jmp _L43
 225  0004              #line 225 "C:\UC_MCU-Develop\UC_F5660_main.c"
 225  0004              	fcall _i2c_start
 226  000B              #line 226 "C:\UC_MCU-Develop\UC_F5660_main.c"
 226  000B  0FE0        	mov a,224
 226  000C              	fcall _i2c_write
 227  0013              #line 227 "C:\UC_MCU-Develop\UC_F5660_main.c"
 227  0013              	fcall _i2c_read_ACK
 227  001A  0080     E  	mov ra,a
 227  001B  1080     E  	sz ra
 227  001C  2800     R  	jmp _L38
 227  001D              #pragma debug scope 6 5
 227  001D              ;begin block, line: 227.-1
 232  001D              #line 232 "C:\UC_MCU-Develop\UC_F5660_main.c"
 232  001D  0700     R  	mov a,_display_Buffer[0]
 232  001E              	fcall _i2c_write
 233  0025              #line 233 "C:\UC_MCU-Develop\UC_F5660_main.c"
 233  0025              	fcall _i2c_read_ACK
 233  002C  0080     E  	mov ra,a
 233  002D  1080     E  	sz ra
"File: UC_F5660_main.c  Assembler  Version HGASM0202      Page 21

 233  002E  2800     R  	jmp _L39
 235  002F              #line 235 "C:\UC_MCU-Develop\UC_F5660_main.c"
 235  002F  0700     R  	mov a,_display_Buffer[0]
 235  0030  0080     E  	mov rb,a
 235  0031  0700     R  	mov a,_display_Buffer[1]
 235  0032  0080     E  	mov rc,a
 235  0033  0700     E  	mov a,rc
 235  0034  0080     E  	mov rb,a
 235  0035  1F00     E  	clr rc
 235  0036  0700     E  	mov a,rb
 235  0037              	fcall _i2c_write
 236  003E              #line 236 "C:\UC_MCU-Develop\UC_F5660_main.c"
 236  003E              	fcall _i2c_read_ACK
 236  0045  0080     E  	mov ra,a
 236  0046  1080     E  	sz ra
 236  0047  2800     R  	jmp _L39
 238  0048              #line 238 "C:\UC_MCU-Develop\UC_F5660_main.c"
 238  0048              	fcall _i2c_stop
 239  004F              #line 239 "C:\UC_MCU-Develop\UC_F5660_main.c"
 239  004F  2800     R  	jmp _L36
 239  0050              _L39:
 247  0050              #line 247 "C:\UC_MCU-Develop\UC_F5660_main.c"
 247  0050              	fcall _i2c_stop
 247  0057  2800     R  	jmp _L43
 247  0058              _L38:
 247  0058              #pragma debug scope 5 1
 254  0058              #line 254 "C:\UC_MCU-Develop\UC_F5660_main.c"
 254  0058              	fcall _i2c_stop
 255  005F              #line 255 "C:\UC_MCU-Develop\UC_F5660_main.c"
 255  005F              ;# 255 "C:\UC_MCU-Develop\UC_F5660_main.c" 1
 255  005F              	IF 10>263690
 255  005F              ;# 255 "C:\UC_MCU-Develop\UC_F5660_main.c" 1
 255  005F              	ERRMESSAGE 'the value 10of the argument exceeds the maxinum 263690'
 255  005F              	ENDIF
 255  005F              ;# 255 "C:\UC_MCU-Develop\UC_F5660_main.c" 1
 255  005F              	IF 10<0
 255  005F              ;# 255 "C:\UC_MCU-Develop\UC_F5660_main.c" 1
 255  005F              	ERRMESSAGE 'the value 10 of the argument exceeds the mininum 0'
 255  005F              	ENDIF
 255  005F              ;# 255 "C:\UC_MCU-Develop\UC_F5660_main.c" 1
 255  005F              	IF 10==0
 255  005F              ;# 255 "C:\UC_MCU-Develop\UC_F5660_main.c" 1
 255  005F              	JMP $
 255  005F              	ENDIF
 255  005F              ;# 255 "C:\UC_MCU-Develop\UC_F5660_main.c" 1
 255  005F              	IF (10>=1) AND (10<( 4 + __PBP__ * 2))
 255  005F              ;# 255 "C:\UC_MCU-Develop\UC_F5660_main.c" 1
 255  005F              	NOP
 255  005F              	ENDIF
 255  005F              ;# 255 "C:\UC_MCU-Develop\UC_F5660_main.c" 1
 255  005F              	IF (10>=2) AND (10<( 4 + __PBP__ * 2))
 255  005F              ;# 255 "C:\UC_MCU-Develop\UC_F5660_main.c" 1
 255  005F              	NOP
 255  005F              	ENDIF
 255  005F              ;# 255 "C:\UC_MCU-Develop\UC_F5660_main.c" 1
 255  005F              	IF (10>=3) AND (10<( 4 + __PBP__ * 2))
 255  005F              ;# 255 "C:\UC_MCU-Develop\UC_F5660_main.c" 1
 255  005F              	NOP
 255  005F              	ENDIF
 255  005F              ;# 255 "C:\UC_MCU-Develop\UC_F5660_main.c" 1
"File: UC_F5660_main.c  Assembler  Version HGASM0202      Page 22

 255  005F              	IF (10>=4) AND (10<( 4 + __PBP__ * 2)) AND ( __PBP__ > 0 )
 255  005F              ;# 255 "C:\UC_MCU-Develop\UC_F5660_main.c" 1
 255  005F              	NOP
 255  005F              	ENDIF
 255  005F              ;# 255 "C:\UC_MCU-Develop\UC_F5660_main.c" 1
 255  005F              	IF (10>=5) AND (10<( 4 + __PBP__ * 2)) AND ( __PBP__ > 0 )
 255  005F              ;# 255 "C:\UC_MCU-Develop\UC_F5660_main.c" 1
 255  005F              	NOP
 255  005F              	ENDIF
 255  005F              ;# 255 "C:\UC_MCU-Develop\UC_F5660_main.c" 1
 255  005F              	IF (10>=6) AND (10<( 4 + __PBP__ * 2))  AND ( __PBP__ > 1 )
 255  005F              ;# 255 "C:\UC_MCU-Develop\UC_F5660_main.c" 1
 255  005F              	NOP
 255  005F              	ENDIF
 255  005F              ;# 255 "C:\UC_MCU-Develop\UC_F5660_main.c" 1
 255  005F              	IF (10>=7) AND (10<( 4 + __PBP__ * 2))  AND ( __PBP__ > 1 )
 255  005F              ;# 255 "C:\UC_MCU-Develop\UC_F5660_main.c" 1
 255  005F              	NOP
 255  005F              	ENDIF
 255  005F              ;# 255 "C:\UC_MCU-Develop\UC_F5660_main.c" 1
 255  005F              	IF (10>=8) AND (10<( 4 + __PBP__ * 2))  AND ( __PBP__ > 2 )
 255  005F              ;# 255 "C:\UC_MCU-Develop\UC_F5660_main.c" 1
 255  005F              	NOP
 255  005F              	ENDIF
 255  005F              ;# 255 "C:\UC_MCU-Develop\UC_F5660_main.c" 1
 255  005F              	IF (10==9)  AND ( __PBP__ > 2 )
 255  005F              ;# 255 "C:\UC_MCU-Develop\UC_F5660_main.c" 1
 255  005F              	NOP
 255  005F              	ENDIF
 255  005F              ;# 255 "C:\UC_MCU-Develop\UC_F5660_main.c" 1
 255  005F              	IF (10< ( 8 + __PBP__ * 2)) AND (10>( 3 + __PBP__ * 2))
 255  005F              ;# 255 "C:\UC_MCU-Develop\UC_F5660_main.c" 1
 255  005F              	fcall __DELAY3 + ( 7 + __PBP__ * 2) -10
 255  005F              	ENDIF
 255  005F              ;# 255 "C:\UC_MCU-Develop\UC_F5660_main.c" 1
 255  005F              	IF (10< ( 0404h + __PBP__ * 2)) AND (10>( 7 + __PBP__ * 2))
 255  005F              ;# 255 "C:\UC_MCU-Develop\UC_F5660_main.c" 1
 255  005F  0F01        	MOV A,(10-( 4 + __PBP__ * 2))/4
 255  0060              ;# 255 "C:\UC_MCU-Develop\UC_F5660_main.c" 1
 255  0060              	fcall __DELAYX3 + 3 -((10-( 4 + __PBP__ * 2)) MOD 4) 
 255  0067              	ENDIF
 255  0067              ;# 255 "C:\UC_MCU-Develop\UC_F5660_main.c" 1
 255  0067              	IF (10< ( 040bh + __PBP__ * 2)) AND (10> ( 0403h + __PBP__ * 2))
 255  0067              ;# 255 "C:\UC_MCU-Develop\UC_F5660_main.c" 1
 255  0067              	MOV A,0 
 255  0067              ;# 255 "C:\UC_MCU-Develop\UC_F5660_main.c" 1
 255  0067              	fcall __DELAYX6 + ( 040ah + __PBP__ * 2) -10
 255  0067              	ENDIF
 255  0067              ;# 255 "C:\UC_MCU-Develop\UC_F5660_main.c" 1
 255  0067              	IF (10 >= ( 040bh + __PBP__ * 2)) AND ((((10-( 9 + __PBP__ * 2))%0402h)/4+1)>256)
 255  0067              ;# 255 "C:\UC_MCU-Develop\UC_F5660_main.c" 1
 255  0067              	MOV A,(10-( 9 + __PBP__ * 2))/0402h
 255  0067              ;# 255 "C:\UC_MCU-Develop\UC_F5660_main.c" 1
 255  0067              	MOV _builtin_holtek_delay_2,A
 255  0067              ;# 255 "C:\UC_MCU-Develop\UC_F5660_main.c" 1
 255  0067              	MOV A,0
 255  0067              ;# 255 "C:\UC_MCU-Develop\UC_F5660_main.c" 1
 255  0067              	fcall __DELAYY5 +5- (((10-( 9 + __PBP__ * 2))%0402h)%6) 
 255  0067              	ENDIF
 255  0067              ;# 255 "C:\UC_MCU-Develop\UC_F5660_main.c" 1
"File: UC_F5660_main.c  Assembler  Version HGASM0202      Page 23

 255  0067              	IF (10 >= ( 040bh + __PBP__ * 2)) AND ((((10-( 9 + __PBP__ * 2))%0402h)/4+1)<=256)
 255  0067              ;# 255 "C:\UC_MCU-Develop\UC_F5660_main.c" 1
 255  0067              	MOV A,(10-( 9 + __PBP__ * 2))/0402h
 255  0067              ;# 255 "C:\UC_MCU-Develop\UC_F5660_main.c" 1
 255  0067              	MOV _builtin_holtek_delay_2,A
 255  0067              ;# 255 "C:\UC_MCU-Develop\UC_F5660_main.c" 1
 255  0067              	MOV A,((10-( 9 + __PBP__ * 2))%0402h)/4+1
 255  0067              ;# 255 "C:\UC_MCU-Develop\UC_F5660_main.c" 1
 255  0067              	fcall __DELAYY3 +3-(((10-( 9 + __PBP__ * 2))%0402h)%4) 
 255  0067              	ENDIF
 256  0067              #line 256 "C:\UC_MCU-Develop\UC_F5660_main.c"
 256  0067  1580     R  	dec _CheckAddressCnt[0]
 256  0068  2800     R  	jmp _L37
 256  0069              _L43:
 260  0069              #line 260 "C:\UC_MCU-Develop\UC_F5660_main.c"
 260  0069              ;# 260 "C:\UC_MCU-Develop\UC_F5660_main.c" 1
 260  0069              	IF 10>263690
 260  0069              ;# 260 "C:\UC_MCU-Develop\UC_F5660_main.c" 1
 260  0069              	ERRMESSAGE 'the value 10of the argument exceeds the maxinum 263690'
 260  0069              	ENDIF
 260  0069              ;# 260 "C:\UC_MCU-Develop\UC_F5660_main.c" 1
 260  0069              	IF 10<0
 260  0069              ;# 260 "C:\UC_MCU-Develop\UC_F5660_main.c" 1
 260  0069              	ERRMESSAGE 'the value 10 of the argument exceeds the mininum 0'
 260  0069              	ENDIF
 260  0069              ;# 260 "C:\UC_MCU-Develop\UC_F5660_main.c" 1
 260  0069              	IF 10==0
 260  0069              ;# 260 "C:\UC_MCU-Develop\UC_F5660_main.c" 1
 260  0069              	JMP $
 260  0069              	ENDIF
 260  0069              ;# 260 "C:\UC_MCU-Develop\UC_F5660_main.c" 1
 260  0069              	IF (10>=1) AND (10<( 4 + __PBP__ * 2))
 260  0069              ;# 260 "C:\UC_MCU-Develop\UC_F5660_main.c" 1
 260  0069              	NOP
 260  0069              	ENDIF
 260  0069              ;# 260 "C:\UC_MCU-Develop\UC_F5660_main.c" 1
 260  0069              	IF (10>=2) AND (10<( 4 + __PBP__ * 2))
 260  0069              ;# 260 "C:\UC_MCU-Develop\UC_F5660_main.c" 1
 260  0069              	NOP
 260  0069              	ENDIF
 260  0069              ;# 260 "C:\UC_MCU-Develop\UC_F5660_main.c" 1
 260  0069              	IF (10>=3) AND (10<( 4 + __PBP__ * 2))
 260  0069              ;# 260 "C:\UC_MCU-Develop\UC_F5660_main.c" 1
 260  0069              	NOP
 260  0069              	ENDIF
 260  0069              ;# 260 "C:\UC_MCU-Develop\UC_F5660_main.c" 1
 260  0069              	IF (10>=4) AND (10<( 4 + __PBP__ * 2)) AND ( __PBP__ > 0 )
 260  0069              ;# 260 "C:\UC_MCU-Develop\UC_F5660_main.c" 1
 260  0069              	NOP
 260  0069              	ENDIF
 260  0069              ;# 260 "C:\UC_MCU-Develop\UC_F5660_main.c" 1
 260  0069              	IF (10>=5) AND (10<( 4 + __PBP__ * 2)) AND ( __PBP__ > 0 )
 260  0069              ;# 260 "C:\UC_MCU-Develop\UC_F5660_main.c" 1
 260  0069              	NOP
 260  0069              	ENDIF
 260  0069              ;# 260 "C:\UC_MCU-Develop\UC_F5660_main.c" 1
 260  0069              	IF (10>=6) AND (10<( 4 + __PBP__ * 2))  AND ( __PBP__ > 1 )
 260  0069              ;# 260 "C:\UC_MCU-Develop\UC_F5660_main.c" 1
 260  0069              	NOP
 260  0069              	ENDIF
"File: UC_F5660_main.c  Assembler  Version HGASM0202      Page 24

 260  0069              ;# 260 "C:\UC_MCU-Develop\UC_F5660_main.c" 1
 260  0069              	IF (10>=7) AND (10<( 4 + __PBP__ * 2))  AND ( __PBP__ > 1 )
 260  0069              ;# 260 "C:\UC_MCU-Develop\UC_F5660_main.c" 1
 260  0069              	NOP
 260  0069              	ENDIF
 260  0069              ;# 260 "C:\UC_MCU-Develop\UC_F5660_main.c" 1
 260  0069              	IF (10>=8) AND (10<( 4 + __PBP__ * 2))  AND ( __PBP__ > 2 )
 260  0069              ;# 260 "C:\UC_MCU-Develop\UC_F5660_main.c" 1
 260  0069              	NOP
 260  0069              	ENDIF
 260  0069              ;# 260 "C:\UC_MCU-Develop\UC_F5660_main.c" 1
 260  0069              	IF (10==9)  AND ( __PBP__ > 2 )
 260  0069              ;# 260 "C:\UC_MCU-Develop\UC_F5660_main.c" 1
 260  0069              	NOP
 260  0069              	ENDIF
 260  0069              ;# 260 "C:\UC_MCU-Develop\UC_F5660_main.c" 1
 260  0069              	IF (10< ( 8 + __PBP__ * 2)) AND (10>( 3 + __PBP__ * 2))
 260  0069              ;# 260 "C:\UC_MCU-Develop\UC_F5660_main.c" 1
 260  0069              	fcall __DELAY3 + ( 7 + __PBP__ * 2) -10
 260  0069              	ENDIF
 260  0069              ;# 260 "C:\UC_MCU-Develop\UC_F5660_main.c" 1
 260  0069              	IF (10< ( 0404h + __PBP__ * 2)) AND (10>( 7 + __PBP__ * 2))
 260  0069              ;# 260 "C:\UC_MCU-Develop\UC_F5660_main.c" 1
 260  0069  0F01        	MOV A,(10-( 4 + __PBP__ * 2))/4
 260  006A              ;# 260 "C:\UC_MCU-Develop\UC_F5660_main.c" 1
 260  006A              	fcall __DELAYX3 + 3 -((10-( 4 + __PBP__ * 2)) MOD 4) 
 260  0071              	ENDIF
 260  0071              ;# 260 "C:\UC_MCU-Develop\UC_F5660_main.c" 1
 260  0071              	IF (10< ( 040bh + __PBP__ * 2)) AND (10> ( 0403h + __PBP__ * 2))
 260  0071              ;# 260 "C:\UC_MCU-Develop\UC_F5660_main.c" 1
 260  0071              	MOV A,0 
 260  0071              ;# 260 "C:\UC_MCU-Develop\UC_F5660_main.c" 1
 260  0071              	fcall __DELAYX6 + ( 040ah + __PBP__ * 2) -10
 260  0071              	ENDIF
 260  0071              ;# 260 "C:\UC_MCU-Develop\UC_F5660_main.c" 1
 260  0071              	IF (10 >= ( 040bh + __PBP__ * 2)) AND ((((10-( 9 + __PBP__ * 2))%0402h)/4+1)>256)
 260  0071              ;# 260 "C:\UC_MCU-Develop\UC_F5660_main.c" 1
 260  0071              	MOV A,(10-( 9 + __PBP__ * 2))/0402h
 260  0071              ;# 260 "C:\UC_MCU-Develop\UC_F5660_main.c" 1
 260  0071              	MOV _builtin_holtek_delay_2,A
 260  0071              ;# 260 "C:\UC_MCU-Develop\UC_F5660_main.c" 1
 260  0071              	MOV A,0
 260  0071              ;# 260 "C:\UC_MCU-Develop\UC_F5660_main.c" 1
 260  0071              	fcall __DELAYY5 +5- (((10-( 9 + __PBP__ * 2))%0402h)%6) 
 260  0071              	ENDIF
 260  0071              ;# 260 "C:\UC_MCU-Develop\UC_F5660_main.c" 1
 260  0071              	IF (10 >= ( 040bh + __PBP__ * 2)) AND ((((10-( 9 + __PBP__ * 2))%0402h)/4+1)<=256)
 260  0071              ;# 260 "C:\UC_MCU-Develop\UC_F5660_main.c" 1
 260  0071              	MOV A,(10-( 9 + __PBP__ * 2))/0402h
 260  0071              ;# 260 "C:\UC_MCU-Develop\UC_F5660_main.c" 1
 260  0071              	MOV _builtin_holtek_delay_2,A
 260  0071              ;# 260 "C:\UC_MCU-Develop\UC_F5660_main.c" 1
 260  0071              	MOV A,((10-( 9 + __PBP__ * 2))%0402h)/4+1
 260  0071              ;# 260 "C:\UC_MCU-Develop\UC_F5660_main.c" 1
 260  0071              	fcall __DELAYY3 +3-(((10-( 9 + __PBP__ * 2))%0402h)%4) 
 260  0071              	ENDIF
 260  0071              _L36:
 260  0071  0003        	ret
 260  0072              _show endp
 260  0072              #line 260 "C:\UC_MCU-Develop\UC_F5660_main.c"
"File: UC_F5660_main.c  Assembler  Version HGASM0202      Page 25

 260  0072              #pragma debug scope 1 1
 260  0072              public _blank
 260  0072              #pragma debug scope 7 1
 265  0072              #line 265 "C:\UC_MCU-Develop\UC_F5660_main.c"
 265  0000              _blank .section 'code'
 265  0000              _blank proc
 266  0000              #line 266 "C:\UC_MCU-Develop\UC_F5660_main.c"
 266  0000  0F05        	mov a,5
 266  0001  0080     R  	mov _CheckAddressCnt[0],a
 266  0002              _L45:
 268  0002              #line 268 "C:\UC_MCU-Develop\UC_F5660_main.c"
 268  0002  1E00     R  	snz _CheckAddressCnt[0]
 268  0003  2800     R  	jmp _L47
 271  0004              #line 271 "C:\UC_MCU-Develop\UC_F5660_main.c"
 271  0004              	fcall _i2c_start
 272  000B              #line 272 "C:\UC_MCU-Develop\UC_F5660_main.c"
 272  000B  0FE0        	mov a,224
 272  000C              	fcall _i2c_write
 273  0013              #line 273 "C:\UC_MCU-Develop\UC_F5660_main.c"
 273  0013              	fcall _i2c_read_ACK
 273  001A  0080     E  	mov ra,a
 273  001B  1080     E  	sz ra
 273  001C  2800     R  	jmp _L46
 276  001D              #line 276 "C:\UC_MCU-Develop\UC_F5660_main.c"
 276  001D  0F81        	mov a,129
 276  001E              	fcall _i2c_write
 277  0025              #line 277 "C:\UC_MCU-Develop\UC_F5660_main.c"
 277  0025              	fcall _i2c_read_ACK
 277  002C              _L47:
 281  002C              #line 281 "C:\UC_MCU-Develop\UC_F5660_main.c"
 281  002C              	fcall _i2c_stop
 282  0033              #line 282 "C:\UC_MCU-Develop\UC_F5660_main.c"
 282  0033              ;# 282 "C:\UC_MCU-Develop\UC_F5660_main.c" 1
 282  0033              	IF 10>263690
 282  0033              ;# 282 "C:\UC_MCU-Develop\UC_F5660_main.c" 1
 282  0033              	ERRMESSAGE 'the value 10of the argument exceeds the maxinum 263690'
 282  0033              	ENDIF
 282  0033              ;# 282 "C:\UC_MCU-Develop\UC_F5660_main.c" 1
 282  0033              	IF 10<0
 282  0033              ;# 282 "C:\UC_MCU-Develop\UC_F5660_main.c" 1
 282  0033              	ERRMESSAGE 'the value 10 of the argument exceeds the mininum 0'
 282  0033              	ENDIF
 282  0033              ;# 282 "C:\UC_MCU-Develop\UC_F5660_main.c" 1
 282  0033              	IF 10==0
 282  0033              ;# 282 "C:\UC_MCU-Develop\UC_F5660_main.c" 1
 282  0033              	JMP $
 282  0033              	ENDIF
 282  0033              ;# 282 "C:\UC_MCU-Develop\UC_F5660_main.c" 1
 282  0033              	IF (10>=1) AND (10<( 4 + __PBP__ * 2))
 282  0033              ;# 282 "C:\UC_MCU-Develop\UC_F5660_main.c" 1
 282  0033              	NOP
 282  0033              	ENDIF
 282  0033              ;# 282 "C:\UC_MCU-Develop\UC_F5660_main.c" 1
 282  0033              	IF (10>=2) AND (10<( 4 + __PBP__ * 2))
 282  0033              ;# 282 "C:\UC_MCU-Develop\UC_F5660_main.c" 1
 282  0033              	NOP
 282  0033              	ENDIF
 282  0033              ;# 282 "C:\UC_MCU-Develop\UC_F5660_main.c" 1
 282  0033              	IF (10>=3) AND (10<( 4 + __PBP__ * 2))
 282  0033              ;# 282 "C:\UC_MCU-Develop\UC_F5660_main.c" 1
"File: UC_F5660_main.c  Assembler  Version HGASM0202      Page 26

 282  0033              	NOP
 282  0033              	ENDIF
 282  0033              ;# 282 "C:\UC_MCU-Develop\UC_F5660_main.c" 1
 282  0033              	IF (10>=4) AND (10<( 4 + __PBP__ * 2)) AND ( __PBP__ > 0 )
 282  0033              ;# 282 "C:\UC_MCU-Develop\UC_F5660_main.c" 1
 282  0033              	NOP
 282  0033              	ENDIF
 282  0033              ;# 282 "C:\UC_MCU-Develop\UC_F5660_main.c" 1
 282  0033              	IF (10>=5) AND (10<( 4 + __PBP__ * 2)) AND ( __PBP__ > 0 )
 282  0033              ;# 282 "C:\UC_MCU-Develop\UC_F5660_main.c" 1
 282  0033              	NOP
 282  0033              	ENDIF
 282  0033              ;# 282 "C:\UC_MCU-Develop\UC_F5660_main.c" 1
 282  0033              	IF (10>=6) AND (10<( 4 + __PBP__ * 2))  AND ( __PBP__ > 1 )
 282  0033              ;# 282 "C:\UC_MCU-Develop\UC_F5660_main.c" 1
 282  0033              	NOP
 282  0033              	ENDIF
 282  0033              ;# 282 "C:\UC_MCU-Develop\UC_F5660_main.c" 1
 282  0033              	IF (10>=7) AND (10<( 4 + __PBP__ * 2))  AND ( __PBP__ > 1 )
 282  0033              ;# 282 "C:\UC_MCU-Develop\UC_F5660_main.c" 1
 282  0033              	NOP
 282  0033              	ENDIF
 282  0033              ;# 282 "C:\UC_MCU-Develop\UC_F5660_main.c" 1
 282  0033              	IF (10>=8) AND (10<( 4 + __PBP__ * 2))  AND ( __PBP__ > 2 )
 282  0033              ;# 282 "C:\UC_MCU-Develop\UC_F5660_main.c" 1
 282  0033              	NOP
 282  0033              	ENDIF
 282  0033              ;# 282 "C:\UC_MCU-Develop\UC_F5660_main.c" 1
 282  0033              	IF (10==9)  AND ( __PBP__ > 2 )
 282  0033              ;# 282 "C:\UC_MCU-Develop\UC_F5660_main.c" 1
 282  0033              	NOP
 282  0033              	ENDIF
 282  0033              ;# 282 "C:\UC_MCU-Develop\UC_F5660_main.c" 1
 282  0033              	IF (10< ( 8 + __PBP__ * 2)) AND (10>( 3 + __PBP__ * 2))
 282  0033              ;# 282 "C:\UC_MCU-Develop\UC_F5660_main.c" 1
 282  0033              	fcall __DELAY3 + ( 7 + __PBP__ * 2) -10
 282  0033              	ENDIF
 282  0033              ;# 282 "C:\UC_MCU-Develop\UC_F5660_main.c" 1
 282  0033              	IF (10< ( 0404h + __PBP__ * 2)) AND (10>( 7 + __PBP__ * 2))
 282  0033              ;# 282 "C:\UC_MCU-Develop\UC_F5660_main.c" 1
 282  0033  0F01        	MOV A,(10-( 4 + __PBP__ * 2))/4
 282  0034              ;# 282 "C:\UC_MCU-Develop\UC_F5660_main.c" 1
 282  0034              	fcall __DELAYX3 + 3 -((10-( 4 + __PBP__ * 2)) MOD 4) 
 282  003B              	ENDIF
 282  003B              ;# 282 "C:\UC_MCU-Develop\UC_F5660_main.c" 1
 282  003B              	IF (10< ( 040bh + __PBP__ * 2)) AND (10> ( 0403h + __PBP__ * 2))
 282  003B              ;# 282 "C:\UC_MCU-Develop\UC_F5660_main.c" 1
 282  003B              	MOV A,0 
 282  003B              ;# 282 "C:\UC_MCU-Develop\UC_F5660_main.c" 1
 282  003B              	fcall __DELAYX6 + ( 040ah + __PBP__ * 2) -10
 282  003B              	ENDIF
 282  003B              ;# 282 "C:\UC_MCU-Develop\UC_F5660_main.c" 1
 282  003B              	IF (10 >= ( 040bh + __PBP__ * 2)) AND ((((10-( 9 + __PBP__ * 2))%0402h)/4+1)>256)
 282  003B              ;# 282 "C:\UC_MCU-Develop\UC_F5660_main.c" 1
 282  003B              	MOV A,(10-( 9 + __PBP__ * 2))/0402h
 282  003B              ;# 282 "C:\UC_MCU-Develop\UC_F5660_main.c" 1
 282  003B              	MOV _builtin_holtek_delay_2,A
 282  003B              ;# 282 "C:\UC_MCU-Develop\UC_F5660_main.c" 1
 282  003B              	MOV A,0
 282  003B              ;# 282 "C:\UC_MCU-Develop\UC_F5660_main.c" 1
"File: UC_F5660_main.c  Assembler  Version HGASM0202      Page 27

 282  003B              	fcall __DELAYY5 +5- (((10-( 9 + __PBP__ * 2))%0402h)%6) 
 282  003B              	ENDIF
 282  003B              ;# 282 "C:\UC_MCU-Develop\UC_F5660_main.c" 1
 282  003B              	IF (10 >= ( 040bh + __PBP__ * 2)) AND ((((10-( 9 + __PBP__ * 2))%0402h)/4+1)<=256)
 282  003B              ;# 282 "C:\UC_MCU-Develop\UC_F5660_main.c" 1
 282  003B              	MOV A,(10-( 9 + __PBP__ * 2))/0402h
 282  003B              ;# 282 "C:\UC_MCU-Develop\UC_F5660_main.c" 1
 282  003B              	MOV _builtin_holtek_delay_2,A
 282  003B              ;# 282 "C:\UC_MCU-Develop\UC_F5660_main.c" 1
 282  003B              	MOV A,((10-( 9 + __PBP__ * 2))%0402h)/4+1
 282  003B              ;# 282 "C:\UC_MCU-Develop\UC_F5660_main.c" 1
 282  003B              	fcall __DELAYY3 +3-(((10-( 9 + __PBP__ * 2))%0402h)%4) 
 282  003B              	ENDIF
 283  003B              #line 283 "C:\UC_MCU-Develop\UC_F5660_main.c"
 283  003B  2800     R  	jmp _L51
 283  003C              _L46:
 287  003C              #line 287 "C:\UC_MCU-Develop\UC_F5660_main.c"
 287  003C              	fcall _i2c_stop
 288  0043              #line 288 "C:\UC_MCU-Develop\UC_F5660_main.c"
 288  0043              ;# 288 "C:\UC_MCU-Develop\UC_F5660_main.c" 1
 288  0043              	IF 10>263690
 288  0043              ;# 288 "C:\UC_MCU-Develop\UC_F5660_main.c" 1
 288  0043              	ERRMESSAGE 'the value 10of the argument exceeds the maxinum 263690'
 288  0043              	ENDIF
 288  0043              ;# 288 "C:\UC_MCU-Develop\UC_F5660_main.c" 1
 288  0043              	IF 10<0
 288  0043              ;# 288 "C:\UC_MCU-Develop\UC_F5660_main.c" 1
 288  0043              	ERRMESSAGE 'the value 10 of the argument exceeds the mininum 0'
 288  0043              	ENDIF
 288  0043              ;# 288 "C:\UC_MCU-Develop\UC_F5660_main.c" 1
 288  0043              	IF 10==0
 288  0043              ;# 288 "C:\UC_MCU-Develop\UC_F5660_main.c" 1
 288  0043              	JMP $
 288  0043              	ENDIF
 288  0043              ;# 288 "C:\UC_MCU-Develop\UC_F5660_main.c" 1
 288  0043              	IF (10>=1) AND (10<( 4 + __PBP__ * 2))
 288  0043              ;# 288 "C:\UC_MCU-Develop\UC_F5660_main.c" 1
 288  0043              	NOP
 288  0043              	ENDIF
 288  0043              ;# 288 "C:\UC_MCU-Develop\UC_F5660_main.c" 1
 288  0043              	IF (10>=2) AND (10<( 4 + __PBP__ * 2))
 288  0043              ;# 288 "C:\UC_MCU-Develop\UC_F5660_main.c" 1
 288  0043              	NOP
 288  0043              	ENDIF
 288  0043              ;# 288 "C:\UC_MCU-Develop\UC_F5660_main.c" 1
 288  0043              	IF (10>=3) AND (10<( 4 + __PBP__ * 2))
 288  0043              ;# 288 "C:\UC_MCU-Develop\UC_F5660_main.c" 1
 288  0043              	NOP
 288  0043              	ENDIF
 288  0043              ;# 288 "C:\UC_MCU-Develop\UC_F5660_main.c" 1
 288  0043              	IF (10>=4) AND (10<( 4 + __PBP__ * 2)) AND ( __PBP__ > 0 )
 288  0043              ;# 288 "C:\UC_MCU-Develop\UC_F5660_main.c" 1
 288  0043              	NOP
 288  0043              	ENDIF
 288  0043              ;# 288 "C:\UC_MCU-Develop\UC_F5660_main.c" 1
 288  0043              	IF (10>=5) AND (10<( 4 + __PBP__ * 2)) AND ( __PBP__ > 0 )
 288  0043              ;# 288 "C:\UC_MCU-Develop\UC_F5660_main.c" 1
 288  0043              	NOP
 288  0043              	ENDIF
 288  0043              ;# 288 "C:\UC_MCU-Develop\UC_F5660_main.c" 1
"File: UC_F5660_main.c  Assembler  Version HGASM0202      Page 28

 288  0043              	IF (10>=6) AND (10<( 4 + __PBP__ * 2))  AND ( __PBP__ > 1 )
 288  0043              ;# 288 "C:\UC_MCU-Develop\UC_F5660_main.c" 1
 288  0043              	NOP
 288  0043              	ENDIF
 288  0043              ;# 288 "C:\UC_MCU-Develop\UC_F5660_main.c" 1
 288  0043              	IF (10>=7) AND (10<( 4 + __PBP__ * 2))  AND ( __PBP__ > 1 )
 288  0043              ;# 288 "C:\UC_MCU-Develop\UC_F5660_main.c" 1
 288  0043              	NOP
 288  0043              	ENDIF
 288  0043              ;# 288 "C:\UC_MCU-Develop\UC_F5660_main.c" 1
 288  0043              	IF (10>=8) AND (10<( 4 + __PBP__ * 2))  AND ( __PBP__ > 2 )
 288  0043              ;# 288 "C:\UC_MCU-Develop\UC_F5660_main.c" 1
 288  0043              	NOP
 288  0043              	ENDIF
 288  0043              ;# 288 "C:\UC_MCU-Develop\UC_F5660_main.c" 1
 288  0043              	IF (10==9)  AND ( __PBP__ > 2 )
 288  0043              ;# 288 "C:\UC_MCU-Develop\UC_F5660_main.c" 1
 288  0043              	NOP
 288  0043              	ENDIF
 288  0043              ;# 288 "C:\UC_MCU-Develop\UC_F5660_main.c" 1
 288  0043              	IF (10< ( 8 + __PBP__ * 2)) AND (10>( 3 + __PBP__ * 2))
 288  0043              ;# 288 "C:\UC_MCU-Develop\UC_F5660_main.c" 1
 288  0043              	fcall __DELAY3 + ( 7 + __PBP__ * 2) -10
 288  0043              	ENDIF
 288  0043              ;# 288 "C:\UC_MCU-Develop\UC_F5660_main.c" 1
 288  0043              	IF (10< ( 0404h + __PBP__ * 2)) AND (10>( 7 + __PBP__ * 2))
 288  0043              ;# 288 "C:\UC_MCU-Develop\UC_F5660_main.c" 1
 288  0043  0F01        	MOV A,(10-( 4 + __PBP__ * 2))/4
 288  0044              ;# 288 "C:\UC_MCU-Develop\UC_F5660_main.c" 1
 288  0044              	fcall __DELAYX3 + 3 -((10-( 4 + __PBP__ * 2)) MOD 4) 
 288  004B              	ENDIF
 288  004B              ;# 288 "C:\UC_MCU-Develop\UC_F5660_main.c" 1
 288  004B              	IF (10< ( 040bh + __PBP__ * 2)) AND (10> ( 0403h + __PBP__ * 2))
 288  004B              ;# 288 "C:\UC_MCU-Develop\UC_F5660_main.c" 1
 288  004B              	MOV A,0 
 288  004B              ;# 288 "C:\UC_MCU-Develop\UC_F5660_main.c" 1
 288  004B              	fcall __DELAYX6 + ( 040ah + __PBP__ * 2) -10
 288  004B              	ENDIF
 288  004B              ;# 288 "C:\UC_MCU-Develop\UC_F5660_main.c" 1
 288  004B              	IF (10 >= ( 040bh + __PBP__ * 2)) AND ((((10-( 9 + __PBP__ * 2))%0402h)/4+1)>256)
 288  004B              ;# 288 "C:\UC_MCU-Develop\UC_F5660_main.c" 1
 288  004B              	MOV A,(10-( 9 + __PBP__ * 2))/0402h
 288  004B              ;# 288 "C:\UC_MCU-Develop\UC_F5660_main.c" 1
 288  004B              	MOV _builtin_holtek_delay_2,A
 288  004B              ;# 288 "C:\UC_MCU-Develop\UC_F5660_main.c" 1
 288  004B              	MOV A,0
 288  004B              ;# 288 "C:\UC_MCU-Develop\UC_F5660_main.c" 1
 288  004B              	fcall __DELAYY5 +5- (((10-( 9 + __PBP__ * 2))%0402h)%6) 
 288  004B              	ENDIF
 288  004B              ;# 288 "C:\UC_MCU-Develop\UC_F5660_main.c" 1
 288  004B              	IF (10 >= ( 040bh + __PBP__ * 2)) AND ((((10-( 9 + __PBP__ * 2))%0402h)/4+1)<=256)
 288  004B              ;# 288 "C:\UC_MCU-Develop\UC_F5660_main.c" 1
 288  004B              	MOV A,(10-( 9 + __PBP__ * 2))/0402h
 288  004B              ;# 288 "C:\UC_MCU-Develop\UC_F5660_main.c" 1
 288  004B              	MOV _builtin_holtek_delay_2,A
 288  004B              ;# 288 "C:\UC_MCU-Develop\UC_F5660_main.c" 1
 288  004B              	MOV A,((10-( 9 + __PBP__ * 2))%0402h)/4+1
 288  004B              ;# 288 "C:\UC_MCU-Develop\UC_F5660_main.c" 1
 288  004B              	fcall __DELAYY3 +3-(((10-( 9 + __PBP__ * 2))%0402h)%4) 
 288  004B              	ENDIF
"File: UC_F5660_main.c  Assembler  Version HGASM0202      Page 29

 289  004B              #line 289 "C:\UC_MCU-Develop\UC_F5660_main.c"
 289  004B  1580     R  	dec _CheckAddressCnt[0]
 289  004C  2800     R  	jmp _L45
 289  004D              _L51:
 289  004D  0003        	ret
 289  004E              _blank endp
 289  004E              #line 289 "C:\UC_MCU-Develop\UC_F5660_main.c"
 289  004E              #pragma debug scope 1 1
 289  004E              public _HT16K33_LED_ON
 289  004E              #pragma debug scope 8 1
 176  004E              #line 176 "C:\UC_MCU-Develop\UC_F5660_main.c"
 176  0000              _HT16K33_LED_ON .section 'code'
 176  0000              _HT16K33_LED_ON proc
 176  0000  0006[           local _HT16K33_LED_ON_2 db 6 dup(?)	; 0,6
            00
            ]
 178  0006              #line 178 "C:\UC_MCU-Develop\UC_F5660_main.c"
 178  0000  1F00     R  	clr _HT16K33_LED_ON_2[0]
 178  0001  1F00     R  	clr _HT16K33_LED_ON_2[1]
 178  0002              _L53:
 178  0002  340A        	clr c
 178  0003  1A00     R  	rlca _HT16K33_LED_ON_2[0]
 178  0004  0080     E  	mov rb,a
 178  0005  1A00     R  	rlca _HT16K33_LED_ON_2[1]
 178  0006  0080     E  	mov rc,a
 178  0007  0F00     R  	mov a,low offset _display_Buffer
 178  0008  0300     E  	add a,rb
 178  0009  0080     R  	mov _HT16K33_LED_ON_2[4],a
 178  000A  0F00     R  	mov a,high offset _display_Buffer
 178  000B  1300     E  	adc a,rc
 178  000C  0080     R  	mov _HT16K33_LED_ON_2[5],a
 176  000D              #line 176 "C:\UC_MCU-Develop\UC_F5660_main.c"
 176  000D  1F00     R  	clr _HT16K33_LED_ON_2[2]
 176  000E  1F00     R  	clr _HT16K33_LED_ON_2[3]
 176  000F              _L57:
 176  000F              #pragma debug scope 9 8
 176  000F              ;begin block, line: 176.-1
 176  000F              #pragma debug variable 11 9 _HT16K33_LED_ON_2+2 "k"
 183  000F              #line 183 "C:\UC_MCU-Develop\UC_F5660_main.c"
 183  000F  0F01        	mov a,1
 183  0010  0080     E  	mov rb,a
 183  0011  1F00     E  	clr rc
 183  0012  1400     R  	inca _HT16K33_LED_ON_2[2]
 183  0013  2800     R  	jmp _LI1
 183  0014              _LI2:
 183  0014  340A        	clr c
 183  0015  1A80     E  	rlc rb
 183  0016  1A80     E  	rlc rc
 183  0017              _LI1:
 183  0017  1785        	sdz acc
 183  0018  2800     R  	jmp _LI2
 183  0019  0700     R  	mov a,_HT16K33_LED_ON_2[4]
 183  001A  0083        	mov mp,a
 183  001B  0700     R  	mov a,_HT16K33_LED_ON_2[5]
 183  001C  0084        	mov sbp,a
 183  001D  0700     E  	mov a,rb
 183  001E  0082        	mov ir,a
 183  001F  1483        	inc mp
 183  0020  0700     E  	mov a,rc
 183  0021  0082        	mov ir,a
"File: UC_F5660_main.c  Assembler  Version HGASM0202      Page 30

 184  0022              #line 184 "C:\UC_MCU-Develop\UC_F5660_main.c"
 184  0022              	fcall _show
 185  0029              #line 185 "C:\UC_MCU-Develop\UC_F5660_main.c"
 185  0029              ;# 185 "C:\UC_MCU-Develop\UC_F5660_main.c" 1
 185  0029              	IF 10>263690
 185  0029              ;# 185 "C:\UC_MCU-Develop\UC_F5660_main.c" 1
 185  0029              	ERRMESSAGE 'the value 10of the argument exceeds the maxinum 263690'
 185  0029              	ENDIF
 185  0029              ;# 185 "C:\UC_MCU-Develop\UC_F5660_main.c" 1
 185  0029              	IF 10<0
 185  0029              ;# 185 "C:\UC_MCU-Develop\UC_F5660_main.c" 1
 185  0029              	ERRMESSAGE 'the value 10 of the argument exceeds the mininum 0'
 185  0029              	ENDIF
 185  0029              ;# 185 "C:\UC_MCU-Develop\UC_F5660_main.c" 1
 185  0029              	IF 10==0
 185  0029              ;# 185 "C:\UC_MCU-Develop\UC_F5660_main.c" 1
 185  0029              	JMP $
 185  0029              	ENDIF
 185  0029              ;# 185 "C:\UC_MCU-Develop\UC_F5660_main.c" 1
 185  0029              	IF (10>=1) AND (10<( 4 + __PBP__ * 2))
 185  0029              ;# 185 "C:\UC_MCU-Develop\UC_F5660_main.c" 1
 185  0029              	NOP
 185  0029              	ENDIF
 185  0029              ;# 185 "C:\UC_MCU-Develop\UC_F5660_main.c" 1
 185  0029              	IF (10>=2) AND (10<( 4 + __PBP__ * 2))
 185  0029              ;# 185 "C:\UC_MCU-Develop\UC_F5660_main.c" 1
 185  0029              	NOP
 185  0029              	ENDIF
 185  0029              ;# 185 "C:\UC_MCU-Develop\UC_F5660_main.c" 1
 185  0029              	IF (10>=3) AND (10<( 4 + __PBP__ * 2))
 185  0029              ;# 185 "C:\UC_MCU-Develop\UC_F5660_main.c" 1
 185  0029              	NOP
 185  0029              	ENDIF
 185  0029              ;# 185 "C:\UC_MCU-Develop\UC_F5660_main.c" 1
 185  0029              	IF (10>=4) AND (10<( 4 + __PBP__ * 2)) AND ( __PBP__ > 0 )
 185  0029              ;# 185 "C:\UC_MCU-Develop\UC_F5660_main.c" 1
 185  0029              	NOP
 185  0029              	ENDIF
 185  0029              ;# 185 "C:\UC_MCU-Develop\UC_F5660_main.c" 1
 185  0029              	IF (10>=5) AND (10<( 4 + __PBP__ * 2)) AND ( __PBP__ > 0 )
 185  0029              ;# 185 "C:\UC_MCU-Develop\UC_F5660_main.c" 1
 185  0029              	NOP
 185  0029              	ENDIF
 185  0029              ;# 185 "C:\UC_MCU-Develop\UC_F5660_main.c" 1
 185  0029              	IF (10>=6) AND (10<( 4 + __PBP__ * 2))  AND ( __PBP__ > 1 )
 185  0029              ;# 185 "C:\UC_MCU-Develop\UC_F5660_main.c" 1
 185  0029              	NOP
 185  0029              	ENDIF
 185  0029              ;# 185 "C:\UC_MCU-Develop\UC_F5660_main.c" 1
 185  0029              	IF (10>=7) AND (10<( 4 + __PBP__ * 2))  AND ( __PBP__ > 1 )
 185  0029              ;# 185 "C:\UC_MCU-Develop\UC_F5660_main.c" 1
 185  0029              	NOP
 185  0029              	ENDIF
 185  0029              ;# 185 "C:\UC_MCU-Develop\UC_F5660_main.c" 1
 185  0029              	IF (10>=8) AND (10<( 4 + __PBP__ * 2))  AND ( __PBP__ > 2 )
 185  0029              ;# 185 "C:\UC_MCU-Develop\UC_F5660_main.c" 1
 185  0029              	NOP
 185  0029              	ENDIF
 185  0029              ;# 185 "C:\UC_MCU-Develop\UC_F5660_main.c" 1
 185  0029              	IF (10==9)  AND ( __PBP__ > 2 )
"File: UC_F5660_main.c  Assembler  Version HGASM0202      Page 31

 185  0029              ;# 185 "C:\UC_MCU-Develop\UC_F5660_main.c" 1
 185  0029              	NOP
 185  0029              	ENDIF
 185  0029              ;# 185 "C:\UC_MCU-Develop\UC_F5660_main.c" 1
 185  0029              	IF (10< ( 8 + __PBP__ * 2)) AND (10>( 3 + __PBP__ * 2))
 185  0029              ;# 185 "C:\UC_MCU-Develop\UC_F5660_main.c" 1
 185  0029              	fcall __DELAY3 + ( 7 + __PBP__ * 2) -10
 185  0029              	ENDIF
 185  0029              ;# 185 "C:\UC_MCU-Develop\UC_F5660_main.c" 1
 185  0029              	IF (10< ( 0404h + __PBP__ * 2)) AND (10>( 7 + __PBP__ * 2))
 185  0029              ;# 185 "C:\UC_MCU-Develop\UC_F5660_main.c" 1
 185  0029  0F01        	MOV A,(10-( 4 + __PBP__ * 2))/4
 185  002A              ;# 185 "C:\UC_MCU-Develop\UC_F5660_main.c" 1
 185  002A              	fcall __DELAYX3 + 3 -((10-( 4 + __PBP__ * 2)) MOD 4) 
 185  0031              	ENDIF
 185  0031              ;# 185 "C:\UC_MCU-Develop\UC_F5660_main.c" 1
 185  0031              	IF (10< ( 040bh + __PBP__ * 2)) AND (10> ( 0403h + __PBP__ * 2))
 185  0031              ;# 185 "C:\UC_MCU-Develop\UC_F5660_main.c" 1
 185  0031              	MOV A,0 
 185  0031              ;# 185 "C:\UC_MCU-Develop\UC_F5660_main.c" 1
 185  0031              	fcall __DELAYX6 + ( 040ah + __PBP__ * 2) -10
 185  0031              	ENDIF
 185  0031              ;# 185 "C:\UC_MCU-Develop\UC_F5660_main.c" 1
 185  0031              	IF (10 >= ( 040bh + __PBP__ * 2)) AND ((((10-( 9 + __PBP__ * 2))%0402h)/4+1)>256)
 185  0031              ;# 185 "C:\UC_MCU-Develop\UC_F5660_main.c" 1
 185  0031              	MOV A,(10-( 9 + __PBP__ * 2))/0402h
 185  0031              ;# 185 "C:\UC_MCU-Develop\UC_F5660_main.c" 1
 185  0031              	MOV _builtin_holtek_delay_2,A
 185  0031              ;# 185 "C:\UC_MCU-Develop\UC_F5660_main.c" 1
 185  0031              	MOV A,0
 185  0031              ;# 185 "C:\UC_MCU-Develop\UC_F5660_main.c" 1
 185  0031              	fcall __DELAYY5 +5- (((10-( 9 + __PBP__ * 2))%0402h)%6) 
 185  0031              	ENDIF
 185  0031              ;# 185 "C:\UC_MCU-Develop\UC_F5660_main.c" 1
 185  0031              	IF (10 >= ( 040bh + __PBP__ * 2)) AND ((((10-( 9 + __PBP__ * 2))%0402h)/4+1)<=256)
 185  0031              ;# 185 "C:\UC_MCU-Develop\UC_F5660_main.c" 1
 185  0031              	MOV A,(10-( 9 + __PBP__ * 2))/0402h
 185  0031              ;# 185 "C:\UC_MCU-Develop\UC_F5660_main.c" 1
 185  0031              	MOV _builtin_holtek_delay_2,A
 185  0031              ;# 185 "C:\UC_MCU-Develop\UC_F5660_main.c" 1
 185  0031              	MOV A,((10-( 9 + __PBP__ * 2))%0402h)/4+1
 185  0031              ;# 185 "C:\UC_MCU-Develop\UC_F5660_main.c" 1
 185  0031              	fcall __DELAYY3 +3-(((10-( 9 + __PBP__ * 2))%0402h)%4) 
 185  0031              	ENDIF
 181  0031              #line 181 "C:\UC_MCU-Develop\UC_F5660_main.c"
 181  0031  1480     R  	inc _HT16K33_LED_ON_2[2]
 181  0032  3D0A        	sz z
 181  0033  1480     R  	inc _HT16K33_LED_ON_2[3]
 181  0034  0700     R  	mov a,_HT16K33_LED_ON_2[2]
 181  0035  0C10        	xor a,16
 181  0036  0500     R  	or a,_HT16K33_LED_ON_2[3]
 181  0037  390A        	snz z
 181  0038  2800     R  	jmp _L57
 187  0039              #line 187 "C:\UC_MCU-Develop\UC_F5660_main.c"
 187  0039              	fcall _clear
 187  0040              #pragma debug scope 8 1
 178  0040              #line 178 "C:\UC_MCU-Develop\UC_F5660_main.c"
 178  0040  1480     R  	inc _HT16K33_LED_ON_2[0]
 178  0041  3D0A        	sz z
 178  0042  1480     R  	inc _HT16K33_LED_ON_2[1]
"File: UC_F5660_main.c  Assembler  Version HGASM0202      Page 32

 178  0043  0700     R  	mov a,_HT16K33_LED_ON_2[0]
 178  0044  0C08        	xor a,8
 178  0045  0500     R  	or a,_HT16K33_LED_ON_2[1]
 178  0046  390A        	snz z
 178  0047  2800     R  	jmp _L53
 178  0048  1F00     R  	clr _HT16K33_LED_ON_2[0]
 178  0049  1F00     R  	clr _HT16K33_LED_ON_2[1]
 178  004A              _L56:
 178  004A  340A        	clr c
 178  004B  1A00     R  	rlca _HT16K33_LED_ON_2[0]
 178  004C  0080     E  	mov rb,a
 178  004D  1A00     R  	rlca _HT16K33_LED_ON_2[1]
 178  004E  0080     E  	mov rc,a
 178  004F  0F00     R  	mov a,low offset _display_Buffer
 178  0050  0300     E  	add a,rb
 178  0051  0080     R  	mov _HT16K33_LED_ON_2[4],a
 178  0052  0F00     R  	mov a,high offset _display_Buffer
 178  0053  1300     E  	adc a,rc
 178  0054  0080     R  	mov _HT16K33_LED_ON_2[5],a
 178  0055  1F00     R  	clr _HT16K33_LED_ON_2[2]
 178  0056  1F00     R  	clr _HT16K33_LED_ON_2[3]
 178  0057              _L60:
 178  0057              #pragma debug scope 10 8
 178  0057              ;begin block, line: 178.-1
 178  0057              #pragma debug variable 11 10 _HT16K33_LED_ON_2+2 "k"
 196  0057              #line 196 "C:\UC_MCU-Develop\UC_F5660_main.c"
 196  0057  0F01        	mov a,1
 196  0058  0080     E  	mov rb,a
 196  0059  1F00     E  	clr rc
 196  005A  1400     R  	inca _HT16K33_LED_ON_2[2]
 196  005B  2800     R  	jmp _LI3
 196  005C              _LI4:
 196  005C  340A        	clr c
 196  005D  1A80     E  	rlc rb
 196  005E  1A80     E  	rlc rc
 196  005F              _LI3:
 196  005F  1785        	sdz acc
 196  0060  2800     R  	jmp _LI4
 196  0061  0700     R  	mov a,_HT16K33_LED_ON_2[4]
 196  0062  0083        	mov mp,a
 196  0063  0700     R  	mov a,_HT16K33_LED_ON_2[5]
 196  0064  0084        	mov sbp,a
 196  0065              	fcall _Crom2Prom
 196  006C  0080     E  	mov rd,a
 196  006D              	fcall _Crom2PromNext
 196  0074  0080     E  	mov re,a
 196  0075  0700     E  	mov a,re
 196  0076  0580     E  	orm a,rc
 196  0077  0700     E  	mov a,rd
 196  0078  0580     E  	orm a,rb
 196  0079  0700     R  	mov a,_HT16K33_LED_ON_2[4]
 196  007A  0083        	mov mp,a
 196  007B  0700     R  	mov a,_HT16K33_LED_ON_2[5]
 196  007C  0084        	mov sbp,a
 196  007D  0700     E  	mov a,rb
 196  007E  0082        	mov ir,a
 196  007F  1483        	inc mp
 196  0080  0700     E  	mov a,rc
 196  0081  0082        	mov ir,a
 197  0082              #line 197 "C:\UC_MCU-Develop\UC_F5660_main.c"
"File: UC_F5660_main.c  Assembler  Version HGASM0202      Page 33

 197  0082              	fcall _show
 198  0089              #line 198 "C:\UC_MCU-Develop\UC_F5660_main.c"
 198  0089              ;# 198 "C:\UC_MCU-Develop\UC_F5660_main.c" 1
 198  0089              	IF 10>263690
 198  0089              ;# 198 "C:\UC_MCU-Develop\UC_F5660_main.c" 1
 198  0089              	ERRMESSAGE 'the value 10of the argument exceeds the maxinum 263690'
 198  0089              	ENDIF
 198  0089              ;# 198 "C:\UC_MCU-Develop\UC_F5660_main.c" 1
 198  0089              	IF 10<0
 198  0089              ;# 198 "C:\UC_MCU-Develop\UC_F5660_main.c" 1
 198  0089              	ERRMESSAGE 'the value 10 of the argument exceeds the mininum 0'
 198  0089              	ENDIF
 198  0089              ;# 198 "C:\UC_MCU-Develop\UC_F5660_main.c" 1
 198  0089              	IF 10==0
 198  0089              ;# 198 "C:\UC_MCU-Develop\UC_F5660_main.c" 1
 198  0089              	JMP $
 198  0089              	ENDIF
 198  0089              ;# 198 "C:\UC_MCU-Develop\UC_F5660_main.c" 1
 198  0089              	IF (10>=1) AND (10<( 4 + __PBP__ * 2))
 198  0089              ;# 198 "C:\UC_MCU-Develop\UC_F5660_main.c" 1
 198  0089              	NOP
 198  0089              	ENDIF
 198  0089              ;# 198 "C:\UC_MCU-Develop\UC_F5660_main.c" 1
 198  0089              	IF (10>=2) AND (10<( 4 + __PBP__ * 2))
 198  0089              ;# 198 "C:\UC_MCU-Develop\UC_F5660_main.c" 1
 198  0089              	NOP
 198  0089              	ENDIF
 198  0089              ;# 198 "C:\UC_MCU-Develop\UC_F5660_main.c" 1
 198  0089              	IF (10>=3) AND (10<( 4 + __PBP__ * 2))
 198  0089              ;# 198 "C:\UC_MCU-Develop\UC_F5660_main.c" 1
 198  0089              	NOP
 198  0089              	ENDIF
 198  0089              ;# 198 "C:\UC_MCU-Develop\UC_F5660_main.c" 1
 198  0089              	IF (10>=4) AND (10<( 4 + __PBP__ * 2)) AND ( __PBP__ > 0 )
 198  0089              ;# 198 "C:\UC_MCU-Develop\UC_F5660_main.c" 1
 198  0089              	NOP
 198  0089              	ENDIF
 198  0089              ;# 198 "C:\UC_MCU-Develop\UC_F5660_main.c" 1
 198  0089              	IF (10>=5) AND (10<( 4 + __PBP__ * 2)) AND ( __PBP__ > 0 )
 198  0089              ;# 198 "C:\UC_MCU-Develop\UC_F5660_main.c" 1
 198  0089              	NOP
 198  0089              	ENDIF
 198  0089              ;# 198 "C:\UC_MCU-Develop\UC_F5660_main.c" 1
 198  0089              	IF (10>=6) AND (10<( 4 + __PBP__ * 2))  AND ( __PBP__ > 1 )
 198  0089              ;# 198 "C:\UC_MCU-Develop\UC_F5660_main.c" 1
 198  0089              	NOP
 198  0089              	ENDIF
 198  0089              ;# 198 "C:\UC_MCU-Develop\UC_F5660_main.c" 1
 198  0089              	IF (10>=7) AND (10<( 4 + __PBP__ * 2))  AND ( __PBP__ > 1 )
 198  0089              ;# 198 "C:\UC_MCU-Develop\UC_F5660_main.c" 1
 198  0089              	NOP
 198  0089              	ENDIF
 198  0089              ;# 198 "C:\UC_MCU-Develop\UC_F5660_main.c" 1
 198  0089              	IF (10>=8) AND (10<( 4 + __PBP__ * 2))  AND ( __PBP__ > 2 )
 198  0089              ;# 198 "C:\UC_MCU-Develop\UC_F5660_main.c" 1
 198  0089              	NOP
 198  0089              	ENDIF
 198  0089              ;# 198 "C:\UC_MCU-Develop\UC_F5660_main.c" 1
 198  0089              	IF (10==9)  AND ( __PBP__ > 2 )
 198  0089              ;# 198 "C:\UC_MCU-Develop\UC_F5660_main.c" 1
"File: UC_F5660_main.c  Assembler  Version HGASM0202      Page 34

 198  0089              	NOP
 198  0089              	ENDIF
 198  0089              ;# 198 "C:\UC_MCU-Develop\UC_F5660_main.c" 1
 198  0089              	IF (10< ( 8 + __PBP__ * 2)) AND (10>( 3 + __PBP__ * 2))
 198  0089              ;# 198 "C:\UC_MCU-Develop\UC_F5660_main.c" 1
 198  0089              	fcall __DELAY3 + ( 7 + __PBP__ * 2) -10
 198  0089              	ENDIF
 198  0089              ;# 198 "C:\UC_MCU-Develop\UC_F5660_main.c" 1
 198  0089              	IF (10< ( 0404h + __PBP__ * 2)) AND (10>( 7 + __PBP__ * 2))
 198  0089              ;# 198 "C:\UC_MCU-Develop\UC_F5660_main.c" 1
 198  0089  0F01        	MOV A,(10-( 4 + __PBP__ * 2))/4
 198  008A              ;# 198 "C:\UC_MCU-Develop\UC_F5660_main.c" 1
 198  008A              	fcall __DELAYX3 + 3 -((10-( 4 + __PBP__ * 2)) MOD 4) 
 198  0091              	ENDIF
 198  0091              ;# 198 "C:\UC_MCU-Develop\UC_F5660_main.c" 1
 198  0091              	IF (10< ( 040bh + __PBP__ * 2)) AND (10> ( 0403h + __PBP__ * 2))
 198  0091              ;# 198 "C:\UC_MCU-Develop\UC_F5660_main.c" 1
 198  0091              	MOV A,0 
 198  0091              ;# 198 "C:\UC_MCU-Develop\UC_F5660_main.c" 1
 198  0091              	fcall __DELAYX6 + ( 040ah + __PBP__ * 2) -10
 198  0091              	ENDIF
 198  0091              ;# 198 "C:\UC_MCU-Develop\UC_F5660_main.c" 1
 198  0091              	IF (10 >= ( 040bh + __PBP__ * 2)) AND ((((10-( 9 + __PBP__ * 2))%0402h)/4+1)>256)
 198  0091              ;# 198 "C:\UC_MCU-Develop\UC_F5660_main.c" 1
 198  0091              	MOV A,(10-( 9 + __PBP__ * 2))/0402h
 198  0091              ;# 198 "C:\UC_MCU-Develop\UC_F5660_main.c" 1
 198  0091              	MOV _builtin_holtek_delay_2,A
 198  0091              ;# 198 "C:\UC_MCU-Develop\UC_F5660_main.c" 1
 198  0091              	MOV A,0
 198  0091              ;# 198 "C:\UC_MCU-Develop\UC_F5660_main.c" 1
 198  0091              	fcall __DELAYY5 +5- (((10-( 9 + __PBP__ * 2))%0402h)%6) 
 198  0091              	ENDIF
 198  0091              ;# 198 "C:\UC_MCU-Develop\UC_F5660_main.c" 1
 198  0091              	IF (10 >= ( 040bh + __PBP__ * 2)) AND ((((10-( 9 + __PBP__ * 2))%0402h)/4+1)<=256)
 198  0091              ;# 198 "C:\UC_MCU-Develop\UC_F5660_main.c" 1
 198  0091              	MOV A,(10-( 9 + __PBP__ * 2))/0402h
 198  0091              ;# 198 "C:\UC_MCU-Develop\UC_F5660_main.c" 1
 198  0091              	MOV _builtin_holtek_delay_2,A
 198  0091              ;# 198 "C:\UC_MCU-Develop\UC_F5660_main.c" 1
 198  0091              	MOV A,((10-( 9 + __PBP__ * 2))%0402h)/4+1
 198  0091              ;# 198 "C:\UC_MCU-Develop\UC_F5660_main.c" 1
 198  0091              	fcall __DELAYY3 +3-(((10-( 9 + __PBP__ * 2))%0402h)%4) 
 198  0091              	ENDIF
 194  0091              #line 194 "C:\UC_MCU-Develop\UC_F5660_main.c"
 194  0091  1480     R  	inc _HT16K33_LED_ON_2[2]
 194  0092  3D0A        	sz z
 194  0093  1480     R  	inc _HT16K33_LED_ON_2[3]
 194  0094  0700     R  	mov a,_HT16K33_LED_ON_2[2]
 194  0095  0C10        	xor a,16
 194  0096  0500     R  	or a,_HT16K33_LED_ON_2[3]
 194  0097  390A        	snz z
 194  0098  2800     R  	jmp _L60
 194  0099              #pragma debug scope 8 1
 191  0099              #line 191 "C:\UC_MCU-Develop\UC_F5660_main.c"
 191  0099  1480     R  	inc _HT16K33_LED_ON_2[0]
 191  009A  3D0A        	sz z
 191  009B  1480     R  	inc _HT16K33_LED_ON_2[1]
 191  009C  0700     R  	mov a,_HT16K33_LED_ON_2[0]
 191  009D  0C08        	xor a,8
 191  009E  0500     R  	or a,_HT16K33_LED_ON_2[1]
"File: UC_F5660_main.c  Assembler  Version HGASM0202      Page 35

 191  009F  390A        	snz z
 191  00A0  2800     R  	jmp _L56
 202  00A1              #line 202 "C:\UC_MCU-Develop\UC_F5660_main.c"
 202  00A1              	fcall _blank
 202  00A8  0003        	ret
 202  00A9              _HT16K33_LED_ON endp
 202  00A9              #line 202 "C:\UC_MCU-Develop\UC_F5660_main.c"
 202  00A9              #pragma debug scope 1 1
 202  00A9              ___wdtc equ [42]
 202  00A9              ___tbc equ [39]
 202  00A9              public _main
 202  00A9              #pragma debug scope 11 1
  19  00A9              #line 19 "C:\UC_MCU-Develop\UC_F5660_main.c"
  19  00A9              IFDEF WITH_DEFAULT_STARTUP
  19  00A9              extern _main_initial0:near
  19  00A9              extern _main_startup:near
  19  00A9              ENDIF
  19  00A9              
  19  00A9              ROMBANK 0 @start
  19  0000              @start .section com_l 'code'
  19  0000              _main_startup1:
  19  0000              @start .section com_e 'code'
  19  0000  0F00     R  	mov a,bank _main
  19  0001  008B        	mov bp,a
  19  0002  2800     R  	jmp _main
  19  0003              
  19  0000              _main .section 'code'
  19  0000              _main proc
  19  0000              #pragma debug scope 12 11
  19  0000              ;begin block, line: 19.-1
  19  0000              #pragma debug scope 13 12
  19  0000              ;begin block, line: 19.-1
 321  0000              #line 321 "C:\UC_MCU-Develop\UC_F5660_main.c"
 321  0000  0FA8        	mov a,168
 321  0001  00AA        	mov [42],a
 321  0002              #pragma debug scope 12 11
 321  0002              #pragma debug scope 11 1
  23  0002              #line 23 "C:\UC_MCU-Develop\UC_F5660_main.c"
  23  0002              	fcall _TimeBase_Init
  24  0009              #line 24 "C:\UC_MCU-Develop\UC_F5660_main.c"
  24  0009  3727        	clr [39].6
  25  000A              #line 25 "C:\UC_MCU-Develop\UC_F5660_main.c"
  25  000A  33A7        	set [39].7
  26  000B              #line 26 "C:\UC_MCU-Develop\UC_F5660_main.c"
  26  000B              	fcall _UC_HT16K33
  26  0012              _L62:
  30  0012              #line 30 "C:\UC_MCU-Develop\UC_F5660_main.c"
  30  0012              	fcall _HT16K33_LED_ON
  30  0019  2800     R  	jmp _L62
  30  001A  2800     R  	jmp $
  30  001B              _main endp
  30  001B              
  30  001B              @dummy endp
  30  001B              
  30  001B              #line 30 "C:\UC_MCU-Develop\UC_F5660_main.c"
  30  001B              #pragma debug scope 1 1
  30  001B              public _UC_Watchdog
  30  001B              #pragma debug scope 14 1
 304  001B              #line 304 "C:\UC_MCU-Develop\UC_F5660_main.c"
 304  0000              _UC_Watchdog .section 'code'
"File: UC_F5660_main.c  Assembler  Version HGASM0202      Page 36

 304  0000              _UC_Watchdog proc
 304  0000              public _UC_Watchdog_2
 304  0000  0002[           local _UC_Watchdog_2 db 2 dup(?)	; 2,0
            00
            ]
 304  0002              #pragma debug variable 12 14 _UC_Watchdog_2+0 "Watchdog"
 306  0002              #line 306 "C:\UC_MCU-Develop\UC_F5660_main.c"
 306  0000  0700     R  	mov a,_UC_Watchdog_2[0]
 306  0001  0C01        	xor a,1
 306  0002  0500     R  	or a,_UC_Watchdog_2[1]
 306  0003  390A        	snz z
 306  0004  2800     R  	jmp _L64
 307  0005              #line 307 "C:\UC_MCU-Develop\UC_F5660_main.c"
 307  0005  37AA        	clr [42].7
 308  0006              #line 308 "C:\UC_MCU-Develop\UC_F5660_main.c"
 308  0006  332A        	set [42].6
 309  0007              #line 309 "C:\UC_MCU-Develop\UC_F5660_main.c"
 309  0007  36AA        	clr [42].5
 310  0008              #line 310 "C:\UC_MCU-Develop\UC_F5660_main.c"
 310  0008  322A        	set [42].4
 311  0009              #line 311 "C:\UC_MCU-Develop\UC_F5660_main.c"
 311  0009  35AA        	clr [42].3
 314  000A              #line 314 "C:\UC_MCU-Develop\UC_F5660_main.c"
 314  000A  352A        	clr [42].2
 315  000B              #line 315 "C:\UC_MCU-Develop\UC_F5660_main.c"
 315  000B  34AA        	clr [42].1
 316  000C              #line 316 "C:\UC_MCU-Develop\UC_F5660_main.c"
 316  000C  342A        	clr [42].0
 317  000D              #line 317 "C:\UC_MCU-Develop\UC_F5660_main.c"
 317  000D  2800     R  	jmp _L63
 317  000E              _L64:
 321  000E              #line 321 "C:\UC_MCU-Develop\UC_F5660_main.c"
 321  000E  0FA8        	mov a,168
 321  000F  00AA        	mov [42],a
 321  0010              _L63:
 321  0010  0003        	ret
 321  0011              _UC_Watchdog endp
 321  0011              #line 321 "C:\UC_MCU-Develop\UC_F5660_main.c"
 321  0011              #pragma debug scope 1 1
 321  0011              public _CheckAddressCnt
 321  0000              @HCCINIT	.section 'data'
  16  0000              #line 16 "C:\UC_MCU-Develop\UC_F5660_main.c"
  16  0000              @HCCINIT_CheckAddressCnt .section 'data'
  16  0000              _CheckAddressCnt label byte
  16  0000              #pragma debug variable 8 1 _CheckAddressCnt "CheckAddressCnt"
  16  0000              	db 5
  16  0000              @ROMDATA_BASE .section inpage 'code'
  16  0000              	db 5
  16  0001              @HCCINIT_CheckAddressCnt .section 'data'
  15  0001              #line 15 "C:\UC_MCU-Develop\UC_F5660_main.c"
  15  0001              public _display_Buffer
  15  0000              @HCCINIT0_display_Buffer .section 'data'
  15  0000  0010[       _display_Buffer	db 16 dup(0)
            00
            ]
  15  0010              #pragma debug array 42 12 8 1
  15  0010              #pragma debug array 42 12 8 1
  15  0010              #pragma debug variable 42 1 _display_Buffer "display_Buffer"
  15  0010              
  15  0000              @HCCINIT .section 'data'
"File: UC_F5660_main.c  Assembler  Version HGASM0202      Page 37

  15  0000              #pragma debug struct_end
  15  0000              #pragma debug struct_end
  15  0000              #pragma debug union_end
  15  0000              #pragma debug union_end
  15  0000              #pragma debug variable 44 1 ___tbc "__tbc" 1
  15  0000              #pragma debug struct_end
  15  0000              #pragma debug struct_end
  15  0000              #pragma debug union_end
  15  0000              #pragma debug union_end
  15  0000              #pragma debug variable 46 1 ___wdtc "__wdtc" 1
  19  0000              #line 19 "C:\UC_MCU-Develop\UC_F5660_main.c"
  19  0000              @code .section at 0 'code'
  19  0000  1F0B        	clr bp
  19  0001  2800     R  	jmp _main_startup1
  19  0002              
  19  0002              extern _i2c_init:near
  19  0002              extern _i2c_start:near
  19  0002              extern _i2c_write:near
  19  0002              extern _i2c_read_ACK:near
  19  0002              extern _i2c_stop:near
  19  0002              extern _TimeBase_Init:near
  19  0002              
  19  0002              ; 
  19  0002              ; Generated by holtek-gcc v3.19, Wed Sep 16 16:26:07 2020
  19  0002              ; Rebuild 718
  19  0002              ; end of file


        0 Errors, 0