"File: UC_F5660_main.c  Assembler  Version HGASM0202      Page 1


   1  0000              ; Generated by holtek-gcc v3.20, Sun Sep 06 12:59:09 2020
   2  0000              ; 
   3  0000              ; Configuration:
   4  0000              ;       with long instruction
   5  0000              ;       Multi-ROM, Multi-RAM
   6  0000              ;       bits_per_rom_unit:16
   7  0000              ;       with mp1
   8  0000              ;       with tbhp, address(0x9)
   9  0000              ;          Use tabrd-const
  10  0000              ;       
  11  0000              ; SFR address of long-instruction arch:
  12  0000              ;    mp0 = -1,1,0
  13  0000              ;    mp1 = 4,3,2
  14  0000              ;    mp2 = 14,13,12
  15  0000              ;    tbp = 9,7,8
  16  0000              ;    acc = 5
  17  0000              ;    pcl = 6
  18  0000              ;    status = 10
  19  0000              ;    bp = 11
  20  0000              ;    intc = 16
  21  0000              ;       
  22  0000              ;       
  23  0000              ; use 'tabrdc' instead of 'tabrd'
  24  0000              ;       
  25  0000              
  26  0000              #pragma translator "holtek-gcc 4.6.4" "3.20" "build 20130711"
  27  0000              ; Rebuild 610
  28  0000              
  29  0000              ir equ [2]
  30  0000              mp equ [3]
  31  0000              sbp equ [4]
  32  0000              acc equ [5]
  33  0000              bp equ [11]
  34  0000              tblp equ [7]
  35  0000              tbhp equ [9]
  36  0000              status equ [10]
  37  0000              c equ [10].0
  38  0000              ac equ [10].1
  39  0000              z equ [10].2
  40  0000              ov equ [10].3
  41  0000              cz equ [10].6
  42  0000              sc equ [10].7
  43  0000              intc equ [16]
  44  0000              
  45  0000              extern ra:byte
  46  0000              extern rb:byte
  47  0000              extern rc:byte
  48  0000              extern rd:byte
  49  0000              extern re:byte
  50  0000              extern rf:byte
  51  0000              extern rg:byte
  52  0000              extern rh:byte
  53  0000              extern _Crom2Prom:near
  54  0000              extern _Crom2PromNext:near
  55  0000              
  56  0000              RAMBANK 0 @BITDATASEC, @BITDATASEC1
  57  0000              @HCCINIT	.section 'data'
  58  0000              @HCCINIT0	.section 'data'
  59  0000              @BITDATASEC	 .section 'data'
"File: UC_F5660_main.ASM  Assembler  Version HGASM0202      Page 2

  60  0000              @BITDATASEC1	 .section 'data'
  61  0000              
  62  0000              #pragma debug scope 1 1
  63  0000              	extern __DELAY3:near
  64  0000              	extern __DELAYX3:near
  65  0000              	extern __DELAYX6:near
  66  0000              	extern __DELAYY5:near
  67  0000              	extern __DELAYY3:near
  68  0000              	extern _builtin_holtek_delay_2:byte
  69  0000              public _init_HT16K33
  70  0000              #pragma debug scope 2 1

  35  0000              #line 35 "C:\HT-3000\UC_F5660\UC_F5660_main.c"
  35  0000              _init_HT16K33 .section 'code'
  35  0000              _init_HT16K33 proc
  35  0000  00              local _init_HT16K33_2 db 1 dup(?)	; 0,1
  36  0001              #line 36 "C:\HT-3000\UC_F5660\UC_F5660_main.c"
  36  0000              	fcall _i2c_init
  38  0007              #line 38 "C:\HT-3000\UC_F5660\UC_F5660_main.c"
  38  0007              	fcall _i2c_start
  39  000E              #line 39 "C:\HT-3000\UC_F5660\UC_F5660_main.c"
  39  000E  0FE0        	mov a,224
  39  000F              	fcall _i2c_write
  40  0016              #line 40 "C:\HT-3000\UC_F5660\UC_F5660_main.c"
  40  0016              	fcall _i2c_read_ACK
  40  001D  0080     E  	mov ra,a
  40  001E  1080     E  	sz ra
  40  001F  2800     R  	jmp _L3
  43  0020              #line 43 "C:\HT-3000\UC_F5660\UC_F5660_main.c"
  43  0020  0F81        	mov a,129
  43  0021              	fcall _i2c_write
  44  0028              #line 44 "C:\HT-3000\UC_F5660\UC_F5660_main.c"
  44  0028              	fcall _i2c_read_ACK
  44  002F  0080     E  	mov ra,a
  44  0030  1080     E  	sz ra
  44  0031  2800     R  	jmp _L3
  46  0032              #line 46 "C:\HT-3000\UC_F5660\UC_F5660_main.c"
  46  0032              	fcall _i2c_stop
  46  0039              _L3:
  51  0039              #line 51 "C:\HT-3000\UC_F5660\UC_F5660_main.c"
  51  0039              	fcall _i2c_start
  52  0040              #line 52 "C:\HT-3000\UC_F5660\UC_F5660_main.c"
  52  0040  0FE0        	mov a,224
  52  0041              	fcall _i2c_write
  53  0048              #line 53 "C:\HT-3000\UC_F5660\UC_F5660_main.c"
  53  0048              	fcall _i2c_read_ACK
  53  004F  0080     E  	mov ra,a
  53  0050  1080     E  	sz ra
  53  0051  2800     R  	jmp _L6
  55  0052              #line 55 "C:\HT-3000\UC_F5660\UC_F5660_main.c"
  55  0052  0FA0        	mov a,160
  55  0053              	fcall _i2c_write
  56  005A              #line 56 "C:\HT-3000\UC_F5660\UC_F5660_main.c"
  56  005A              	fcall _i2c_read_ACK
  56  0061  0080     E  	mov ra,a
  56  0062  1080     E  	sz ra
  56  0063  2800     R  	jmp _L6
  58  0064              #line 58 "C:\HT-3000\UC_F5660\UC_F5660_main.c"
  58  0064              	fcall _i2c_stop
  58  006B              _L6:
"File: UC_F5660_main.c  Assembler  Version HGASM0202      Page 3

  62  006B              #line 62 "C:\HT-3000\UC_F5660\UC_F5660_main.c"
  62  006B              	fcall _i2c_start
  63  0072              #line 63 "C:\HT-3000\UC_F5660\UC_F5660_main.c"
  63  0072  0FE0        	mov a,224
  63  0073              	fcall _i2c_write
  64  007A              #line 64 "C:\HT-3000\UC_F5660\UC_F5660_main.c"
  64  007A              	fcall _i2c_read_ACK
  64  0081  0080     E  	mov ra,a
  64  0082  1080     E  	sz ra
  64  0083  2800     R  	jmp _L9
  66  0084              #line 66 "C:\HT-3000\UC_F5660\UC_F5660_main.c"
  66  0084  0FEF        	mov a,239
  66  0085              	fcall _i2c_write
  67  008C              #line 67 "C:\HT-3000\UC_F5660\UC_F5660_main.c"
  67  008C              	fcall _i2c_read_ACK
  67  0093  0080     E  	mov ra,a
  67  0094  1080     E  	sz ra
  67  0095  2800     R  	jmp _L9
  69  0096              #line 69 "C:\HT-3000\UC_F5660\UC_F5660_main.c"
  69  0096              	fcall _i2c_stop
  69  009D              _L9:
  74  009D              #line 74 "C:\HT-3000\UC_F5660\UC_F5660_main.c"
  74  009D              	fcall _i2c_start
  75  00A4              #line 75 "C:\HT-3000\UC_F5660\UC_F5660_main.c"
  75  00A4  0FE0        	mov a,224
  75  00A5              	fcall _i2c_write
  76  00AC              #line 76 "C:\HT-3000\UC_F5660\UC_F5660_main.c"
  76  00AC              	fcall _i2c_read_ACK
  76  00B3  0080     E  	mov ra,a
  76  00B4  1080     E  	sz ra
  76  00B5  2800     R  	jmp _L12
  78  00B6              #line 78 "C:\HT-3000\UC_F5660\UC_F5660_main.c"
  78  00B6  0F80        	mov a,128
  78  00B7              	fcall _i2c_write
  79  00BE              #line 79 "C:\HT-3000\UC_F5660\UC_F5660_main.c"
  79  00BE              	fcall _i2c_read_ACK
  79  00C5  0080     E  	mov ra,a
  79  00C6  1080     E  	sz ra
  79  00C7  2800     R  	jmp _L12
  81  00C8              #line 81 "C:\HT-3000\UC_F5660\UC_F5660_main.c"
  81  00C8              	fcall _i2c_stop
  81  00CF              _L12:
  85  00CF              #line 85 "C:\HT-3000\UC_F5660\UC_F5660_main.c"
  85  00CF              	fcall _i2c_start
  86  00D6              #line 86 "C:\HT-3000\UC_F5660\UC_F5660_main.c"
  86  00D6  0FE0        	mov a,224
  86  00D7              	fcall _i2c_write
  87  00DE              #line 87 "C:\HT-3000\UC_F5660\UC_F5660_main.c"
  87  00DE              	fcall _i2c_read_ACK
  87  00E5  0080     E  	mov ra,a
  87  00E6  1080     E  	sz ra
  87  00E7  2800     R  	jmp _L1
  89  00E8              #line 89 "C:\HT-3000\UC_F5660\UC_F5660_main.c"
  89  00E8  0F00        	mov a,0
  89  00E9              	fcall _i2c_write
  90  00F0              #line 90 "C:\HT-3000\UC_F5660\UC_F5660_main.c"
  90  00F0              	fcall _i2c_read_ACK
  90  00F7  0080     E  	mov ra,a
  90  00F8  1080     E  	sz ra
  90  00F9  2800     R  	jmp _L1
"File: UC_F5660_main.c  Assembler  Version HGASM0202      Page 4

  90  00FA  1F00     R  	clr _init_HT16K33_2[0]
  90  00FB              _L20:
  90  00FB              #pragma debug scope 3 2
  90  00FB              ;begin block, line: 90.-1
  95  00FB              #line 95 "C:\HT-3000\UC_F5660\UC_F5660_main.c"
  95  00FB              	fcall _i2c_read_ACK
  95  0102  0080     E  	mov ra,a
  95  0103  1700     E  	sdza ra
  95  0104  2800     R  	jmp _L17
  97  0105              #line 97 "C:\HT-3000\UC_F5660\UC_F5660_main.c"
  97  0105              ;# 97 "C:\HT-3000\UC_F5660\UC_F5660_main.c" 1
  97  0105              	IF 100>263690
  97  0105              ;# 97 "C:\HT-3000\UC_F5660\UC_F5660_main.c" 1
  97  0105              	ERRMESSAGE 'the value 100of the argument exceeds the maxinum 263690'
  97  0105              	ENDIF
  97  0105              ;# 97 "C:\HT-3000\UC_F5660\UC_F5660_main.c" 1
  97  0105              	IF 100<0
  97  0105              ;# 97 "C:\HT-3000\UC_F5660\UC_F5660_main.c" 1
  97  0105              	ERRMESSAGE 'the value 100 of the argument exceeds the mininum 0'
  97  0105              	ENDIF
  97  0105              ;# 97 "C:\HT-3000\UC_F5660\UC_F5660_main.c" 1
  97  0105              	IF 100==0
  97  0105              ;# 97 "C:\HT-3000\UC_F5660\UC_F5660_main.c" 1
  97  0105              	JMP $
  97  0105              	ENDIF
  97  0105              ;# 97 "C:\HT-3000\UC_F5660\UC_F5660_main.c" 1
  97  0105              	IF (100>=1) AND (100<( 4 + __PBP__ * 2))
  97  0105              ;# 97 "C:\HT-3000\UC_F5660\UC_F5660_main.c" 1
  97  0105              	NOP
  97  0105              	ENDIF
  97  0105              ;# 97 "C:\HT-3000\UC_F5660\UC_F5660_main.c" 1
  97  0105              	IF (100>=2) AND (100<( 4 + __PBP__ * 2))
  97  0105              ;# 97 "C:\HT-3000\UC_F5660\UC_F5660_main.c" 1
  97  0105              	NOP
  97  0105              	ENDIF
  97  0105              ;# 97 "C:\HT-3000\UC_F5660\UC_F5660_main.c" 1
  97  0105              	IF (100>=3) AND (100<( 4 + __PBP__ * 2))
  97  0105              ;# 97 "C:\HT-3000\UC_F5660\UC_F5660_main.c" 1
  97  0105              	NOP
  97  0105              	ENDIF
  97  0105              ;# 97 "C:\HT-3000\UC_F5660\UC_F5660_main.c" 1
  97  0105              	IF (100>=4) AND (100<( 4 + __PBP__ * 2)) AND ( __PBP__ > 0 )
  97  0105              ;# 97 "C:\HT-3000\UC_F5660\UC_F5660_main.c" 1
  97  0105              	NOP
  97  0105              	ENDIF
  97  0105              ;# 97 "C:\HT-3000\UC_F5660\UC_F5660_main.c" 1
  97  0105              	IF (100>=5) AND (100<( 4 + __PBP__ * 2)) AND ( __PBP__ > 0 )
  97  0105              ;# 97 "C:\HT-3000\UC_F5660\UC_F5660_main.c" 1
  97  0105              	NOP
  97  0105              	ENDIF
  97  0105              ;# 97 "C:\HT-3000\UC_F5660\UC_F5660_main.c" 1
  97  0105              	IF (100>=6) AND (100<( 4 + __PBP__ * 2))  AND ( __PBP__ > 1 )
  97  0105              ;# 97 "C:\HT-3000\UC_F5660\UC_F5660_main.c" 1
  97  0105              	NOP
  97  0105              	ENDIF
  97  0105              ;# 97 "C:\HT-3000\UC_F5660\UC_F5660_main.c" 1
  97  0105              	IF (100>=7) AND (100<( 4 + __PBP__ * 2))  AND ( __PBP__ > 1 )
  97  0105              ;# 97 "C:\HT-3000\UC_F5660\UC_F5660_main.c" 1
  97  0105              	NOP
  97  0105              	ENDIF
"File: UC_F5660_main.c  Assembler  Version HGASM0202      Page 5

  97  0105              ;# 97 "C:\HT-3000\UC_F5660\UC_F5660_main.c" 1
  97  0105              	IF (100>=8) AND (100<( 4 + __PBP__ * 2))  AND ( __PBP__ > 2 )
  97  0105              ;# 97 "C:\HT-3000\UC_F5660\UC_F5660_main.c" 1
  97  0105              	NOP
  97  0105              	ENDIF
  97  0105              ;# 97 "C:\HT-3000\UC_F5660\UC_F5660_main.c" 1
  97  0105              	IF (100==9)  AND ( __PBP__ > 2 )
  97  0105              ;# 97 "C:\HT-3000\UC_F5660\UC_F5660_main.c" 1
  97  0105              	NOP
  97  0105              	ENDIF
  97  0105              ;# 97 "C:\HT-3000\UC_F5660\UC_F5660_main.c" 1
  97  0105              	IF (100< ( 8 + __PBP__ * 2)) AND (100>( 3 + __PBP__ * 2))
  97  0105              ;# 97 "C:\HT-3000\UC_F5660\UC_F5660_main.c" 1
  97  0105              	fcall __DELAY3 + ( 7 + __PBP__ * 2) -100
  97  0105              	ENDIF
  97  0105              ;# 97 "C:\HT-3000\UC_F5660\UC_F5660_main.c" 1
  97  0105              	IF (100< ( 0404h + __PBP__ * 2)) AND (100>( 7 + __PBP__ * 2))
  97  0105              ;# 97 "C:\HT-3000\UC_F5660\UC_F5660_main.c" 1
  97  0105  0F17        	MOV A,(100-( 4 + __PBP__ * 2))/4
  97  0106              ;# 97 "C:\HT-3000\UC_F5660\UC_F5660_main.c" 1
  97  0106              	fcall __DELAYX3 + 3 -((100-( 4 + __PBP__ * 2)) MOD 4) 
  97  010D              	ENDIF
  97  010D              ;# 97 "C:\HT-3000\UC_F5660\UC_F5660_main.c" 1
  97  010D              	IF (100< ( 040bh + __PBP__ * 2)) AND (100> ( 0403h + __PBP__ * 2))
  97  010D              ;# 97 "C:\HT-3000\UC_F5660\UC_F5660_main.c" 1
  97  010D              	MOV A,0 
  97  010D              ;# 97 "C:\HT-3000\UC_F5660\UC_F5660_main.c" 1
  97  010D              	fcall __DELAYX6 + ( 040ah + __PBP__ * 2) -100
  97  010D              	ENDIF
  97  010D              ;# 97 "C:\HT-3000\UC_F5660\UC_F5660_main.c" 1
  97  010D              	IF (100 >= ( 040bh + __PBP__ * 2)) AND ((((100-( 9 + __PBP__ * 2))%0402h)/4+1)>256)
  97  010D              ;# 97 "C:\HT-3000\UC_F5660\UC_F5660_main.c" 1
  97  010D              	MOV A,(100-( 9 + __PBP__ * 2))/0402h
  97  010D              ;# 97 "C:\HT-3000\UC_F5660\UC_F5660_main.c" 1
  97  010D              	MOV _builtin_holtek_delay_2,A
  97  010D              ;# 97 "C:\HT-3000\UC_F5660\UC_F5660_main.c" 1
  97  010D              	MOV A,0
  97  010D              ;# 97 "C:\HT-3000\UC_F5660\UC_F5660_main.c" 1
  97  010D              	fcall __DELAYY5 +5- (((100-( 9 + __PBP__ * 2))%0402h)%6) 
  97  010D              	ENDIF
  97  010D              ;# 97 "C:\HT-3000\UC_F5660\UC_F5660_main.c" 1
  97  010D              	IF (100 >= ( 040bh + __PBP__ * 2)) AND ((((100-( 9 + __PBP__ * 2))%0402h)/4+1)<=256)
  97  010D              ;# 97 "C:\HT-3000\UC_F5660\UC_F5660_main.c" 1
  97  010D              	MOV A,(100-( 9 + __PBP__ * 2))/0402h
  97  010D              ;# 97 "C:\HT-3000\UC_F5660\UC_F5660_main.c" 1
  97  010D              	MOV _builtin_holtek_delay_2,A
  97  010D              ;# 97 "C:\HT-3000\UC_F5660\UC_F5660_main.c" 1
  97  010D              	MOV A,((100-( 9 + __PBP__ * 2))%0402h)/4+1
  97  010D              ;# 97 "C:\HT-3000\UC_F5660\UC_F5660_main.c" 1
  97  010D              	fcall __DELAYY3 +3-(((100-( 9 + __PBP__ * 2))%0402h)%4) 
  97  010D              	ENDIF
  97  010D  2800     R  	jmp _L18
  97  010E              _L17:
 101  010E              #line 101 "C:\HT-3000\UC_F5660\UC_F5660_main.c"
 101  010E  0FFF        	mov a,255
 101  010F              	fcall _i2c_write
 101  0116              _L18:
 101  0116  1480     R  	inc _init_HT16K33_2[0]
  93  0117              #line 93 "C:\HT-3000\UC_F5660\UC_F5660_main.c"
  93  0117  0700     R  	mov a,_init_HT16K33_2[0]
"File: UC_F5660_main.c  Assembler  Version HGASM0202      Page 6

  93  0118  0A0C        	sub a,12
  93  0119  390A        	snz z
  93  011A  2800     R  	jmp _L20
 104  011B              #line 104 "C:\HT-3000\UC_F5660\UC_F5660_main.c"
 104  011B              	fcall _i2c_stop
 104  0122              _L1:
 104  0122              #pragma debug scope 2 1
 104  0122  0003        	ret
 104  0123              _init_HT16K33 endp
 104  0123              #line 104 "C:\HT-3000\UC_F5660\UC_F5660_main.c"
 104  0123              #pragma debug scope 1 1
 104  0123              public _HT16K33_LED_ON
 104  0123              #pragma debug scope 4 1
 119  0123              #line 119 "C:\HT-3000\UC_F5660\UC_F5660_main.c"
 119  0000              _HT16K33_LED_ON .section 'code'
 119  0000              _HT16K33_LED_ON proc
 119  0000  00              local _HT16K33_LED_ON_2 db 1 dup(?)	; 0,1
 121  0001              #line 121 "C:\HT-3000\UC_F5660\UC_F5660_main.c"
 121  0000              	fcall _i2c_start
 122  0007              #line 122 "C:\HT-3000\UC_F5660\UC_F5660_main.c"
 122  0007  0FE0        	mov a,224
 122  0008              	fcall _i2c_write
 123  000F              #line 123 "C:\HT-3000\UC_F5660\UC_F5660_main.c"
 123  000F              	fcall _i2c_read_ACK
 123  0016  0080     E  	mov ra,a
 123  0017  1E00     E  	snz ra
 123  0018  2800     R  	jmp _L23
 123  0019              _L26:
 141  0019              #line 141 "C:\HT-3000\UC_F5660\UC_F5660_main.c"
 141  0019              	fcall _i2c_start
 142  0020              #line 142 "C:\HT-3000\UC_F5660\UC_F5660_main.c"
 142  0020  0FE0        	mov a,224
 142  0021              	fcall _i2c_write
 143  0028              #line 143 "C:\HT-3000\UC_F5660\UC_F5660_main.c"
 143  0028              	fcall _i2c_read_ACK
 143  002F  0080     E  	mov ra,a
 143  0030  1080     E  	sz ra
 143  0031  2800     R  	jmp _L22
 143  0032  2800     R  	jmp _L33
 143  0033              _L23:
 125  0033              #line 125 "C:\HT-3000\UC_F5660\UC_F5660_main.c"
 125  0033  0F00        	mov a,0
 125  0034              	fcall _i2c_write
 126  003B              #line 126 "C:\HT-3000\UC_F5660\UC_F5660_main.c"
 126  003B              	fcall _i2c_read_ACK
 126  0042  0080     E  	mov ra,a
 126  0043  1080     E  	sz ra
 126  0044  2800     R  	jmp _L26
 126  0045  0F06        	mov a,6
 126  0046  0080     R  	mov _HT16K33_LED_ON_2[0],a
 126  0047              _L28:
 126  0047              #pragma debug scope 5 4
 126  0047              ;begin block, line: 126.-1
 131  0047              #line 131 "C:\HT-3000\UC_F5660\UC_F5660_main.c"
 131  0047  0FFF        	mov a,255
 131  0048              	fcall _i2c_write
 132  004F              #line 132 "C:\HT-3000\UC_F5660\UC_F5660_main.c"
 132  004F              	fcall _i2c_read_ACK
 132  0056  0080     E  	mov ra,a
 132  0057  1080     E  	sz ra
"File: UC_F5660_main.c  Assembler  Version HGASM0202      Page 7

 132  0058  2800     R  	jmp _L27
 134  0059              #line 134 "C:\HT-3000\UC_F5660\UC_F5660_main.c"
 134  0059  0F03        	mov a,3
 134  005A              	fcall _i2c_write
 134  0061              _L27:
 134  0061  1780     R  	sdz _HT16K33_LED_ON_2[0]
 134  0062  2800     R  	jmp _L28
 134  0063  2800     R  	jmp _L26
 134  0064              _L33:
 134  0064              #pragma debug scope 4 1
 145  0064              #line 145 "C:\HT-3000\UC_F5660\UC_F5660_main.c"
 145  0064  0F80        	mov a,128
 145  0065              	fcall _i2c_write
 146  006C              #line 146 "C:\HT-3000\UC_F5660\UC_F5660_main.c"
 146  006C              	fcall _i2c_read_ACK
 146  0073  0080     E  	mov ra,a
 146  0074  1080     E  	sz ra
 146  0075  2800     R  	jmp _L22
 148  0076              #line 148 "C:\HT-3000\UC_F5660\UC_F5660_main.c"
 148  0076  0F81        	mov a,129
 148  0077              	fcall _i2c_write
 149  007E              #line 149 "C:\HT-3000\UC_F5660\UC_F5660_main.c"
 149  007E              	fcall _i2c_read_ACK
 149  0085  0080     E  	mov ra,a
 149  0086  1080     E  	sz ra
 149  0087  2800     R  	jmp _L22
 151  0088              #line 151 "C:\HT-3000\UC_F5660\UC_F5660_main.c"
 151  0088              	fcall _i2c_stop
 151  008F              _L22:
 151  008F  0003        	ret
 151  0090              _HT16K33_LED_ON endp
 151  0090              #line 151 "C:\HT-3000\UC_F5660\UC_F5660_main.c"
 151  0090              #pragma debug scope 1 1
 151  0090              public _UC_HT16K33
 151  0090              #pragma debug scope 6 1
  27  0090              #line 27 "C:\HT-3000\UC_F5660\UC_F5660_main.c"
  27  0000              _UC_HT16K33 .section 'code'
  27  0000              _UC_HT16K33 proc
  28  0000              #line 28 "C:\HT-3000\UC_F5660\UC_F5660_main.c"
  28  0000              	fcall _init_HT16K33
  29  0007              #line 29 "C:\HT-3000\UC_F5660\UC_F5660_main.c"
  29  0007              ;# 29 "C:\HT-3000\UC_F5660\UC_F5660_main.c" 1
  29  0007              	IF 20>263690
  29  0007              ;# 29 "C:\HT-3000\UC_F5660\UC_F5660_main.c" 1
  29  0007              	ERRMESSAGE 'the value 20of the argument exceeds the maxinum 263690'
  29  0007              	ENDIF
  29  0007              ;# 29 "C:\HT-3000\UC_F5660\UC_F5660_main.c" 1
  29  0007              	IF 20<0
  29  0007              ;# 29 "C:\HT-3000\UC_F5660\UC_F5660_main.c" 1
  29  0007              	ERRMESSAGE 'the value 20 of the argument exceeds the mininum 0'
  29  0007              	ENDIF
  29  0007              ;# 29 "C:\HT-3000\UC_F5660\UC_F5660_main.c" 1
  29  0007              	IF 20==0
  29  0007              ;# 29 "C:\HT-3000\UC_F5660\UC_F5660_main.c" 1
  29  0007              	JMP $
  29  0007              	ENDIF
  29  0007              ;# 29 "C:\HT-3000\UC_F5660\UC_F5660_main.c" 1
  29  0007              	IF (20>=1) AND (20<( 4 + __PBP__ * 2))
  29  0007              ;# 29 "C:\HT-3000\UC_F5660\UC_F5660_main.c" 1
  29  0007              	NOP
"File: UC_F5660_main.c  Assembler  Version HGASM0202      Page 8

  29  0007              	ENDIF
  29  0007              ;# 29 "C:\HT-3000\UC_F5660\UC_F5660_main.c" 1
  29  0007              	IF (20>=2) AND (20<( 4 + __PBP__ * 2))
  29  0007              ;# 29 "C:\HT-3000\UC_F5660\UC_F5660_main.c" 1
  29  0007              	NOP
  29  0007              	ENDIF
  29  0007              ;# 29 "C:\HT-3000\UC_F5660\UC_F5660_main.c" 1
  29  0007              	IF (20>=3) AND (20<( 4 + __PBP__ * 2))
  29  0007              ;# 29 "C:\HT-3000\UC_F5660\UC_F5660_main.c" 1
  29  0007              	NOP
  29  0007              	ENDIF
  29  0007              ;# 29 "C:\HT-3000\UC_F5660\UC_F5660_main.c" 1
  29  0007              	IF (20>=4) AND (20<( 4 + __PBP__ * 2)) AND ( __PBP__ > 0 )
  29  0007              ;# 29 "C:\HT-3000\UC_F5660\UC_F5660_main.c" 1
  29  0007              	NOP
  29  0007              	ENDIF
  29  0007              ;# 29 "C:\HT-3000\UC_F5660\UC_F5660_main.c" 1
  29  0007              	IF (20>=5) AND (20<( 4 + __PBP__ * 2)) AND ( __PBP__ > 0 )
  29  0007              ;# 29 "C:\HT-3000\UC_F5660\UC_F5660_main.c" 1
  29  0007              	NOP
  29  0007              	ENDIF
  29  0007              ;# 29 "C:\HT-3000\UC_F5660\UC_F5660_main.c" 1
  29  0007              	IF (20>=6) AND (20<( 4 + __PBP__ * 2))  AND ( __PBP__ > 1 )
  29  0007              ;# 29 "C:\HT-3000\UC_F5660\UC_F5660_main.c" 1
  29  0007              	NOP
  29  0007              	ENDIF
  29  0007              ;# 29 "C:\HT-3000\UC_F5660\UC_F5660_main.c" 1
  29  0007              	IF (20>=7) AND (20<( 4 + __PBP__ * 2))  AND ( __PBP__ > 1 )
  29  0007              ;# 29 "C:\HT-3000\UC_F5660\UC_F5660_main.c" 1
  29  0007              	NOP
  29  0007              	ENDIF
  29  0007              ;# 29 "C:\HT-3000\UC_F5660\UC_F5660_main.c" 1
  29  0007              	IF (20>=8) AND (20<( 4 + __PBP__ * 2))  AND ( __PBP__ > 2 )
  29  0007              ;# 29 "C:\HT-3000\UC_F5660\UC_F5660_main.c" 1
  29  0007              	NOP
  29  0007              	ENDIF
  29  0007              ;# 29 "C:\HT-3000\UC_F5660\UC_F5660_main.c" 1
  29  0007              	IF (20==9)  AND ( __PBP__ > 2 )
  29  0007              ;# 29 "C:\HT-3000\UC_F5660\UC_F5660_main.c" 1
  29  0007              	NOP
  29  0007              	ENDIF
  29  0007              ;# 29 "C:\HT-3000\UC_F5660\UC_F5660_main.c" 1
  29  0007              	IF (20< ( 8 + __PBP__ * 2)) AND (20>( 3 + __PBP__ * 2))
  29  0007              ;# 29 "C:\HT-3000\UC_F5660\UC_F5660_main.c" 1
  29  0007              	fcall __DELAY3 + ( 7 + __PBP__ * 2) -20
  29  0007              	ENDIF
  29  0007              ;# 29 "C:\HT-3000\UC_F5660\UC_F5660_main.c" 1
  29  0007              	IF (20< ( 0404h + __PBP__ * 2)) AND (20>( 7 + __PBP__ * 2))
  29  0007              ;# 29 "C:\HT-3000\UC_F5660\UC_F5660_main.c" 1
  29  0007  0F03        	MOV A,(20-( 4 + __PBP__ * 2))/4
  29  0008              ;# 29 "C:\HT-3000\UC_F5660\UC_F5660_main.c" 1
  29  0008              	fcall __DELAYX3 + 3 -((20-( 4 + __PBP__ * 2)) MOD 4) 
  29  000F              	ENDIF
  29  000F              ;# 29 "C:\HT-3000\UC_F5660\UC_F5660_main.c" 1
  29  000F              	IF (20< ( 040bh + __PBP__ * 2)) AND (20> ( 0403h + __PBP__ * 2))
  29  000F              ;# 29 "C:\HT-3000\UC_F5660\UC_F5660_main.c" 1
  29  000F              	MOV A,0 
  29  000F              ;# 29 "C:\HT-3000\UC_F5660\UC_F5660_main.c" 1
  29  000F              	fcall __DELAYX6 + ( 040ah + __PBP__ * 2) -20
  29  000F              	ENDIF
"File: UC_F5660_main.c  Assembler  Version HGASM0202      Page 9

  29  000F              ;# 29 "C:\HT-3000\UC_F5660\UC_F5660_main.c" 1
  29  000F              	IF (20 >= ( 040bh + __PBP__ * 2)) AND ((((20-( 9 + __PBP__ * 2))%0402h)/4+1)>256)
  29  000F              ;# 29 "C:\HT-3000\UC_F5660\UC_F5660_main.c" 1
  29  000F              	MOV A,(20-( 9 + __PBP__ * 2))/0402h
  29  000F              ;# 29 "C:\HT-3000\UC_F5660\UC_F5660_main.c" 1
  29  000F              	MOV _builtin_holtek_delay_2,A
  29  000F              ;# 29 "C:\HT-3000\UC_F5660\UC_F5660_main.c" 1
  29  000F              	MOV A,0
  29  000F              ;# 29 "C:\HT-3000\UC_F5660\UC_F5660_main.c" 1
  29  000F              	fcall __DELAYY5 +5- (((20-( 9 + __PBP__ * 2))%0402h)%6) 
  29  000F              	ENDIF
  29  000F              ;# 29 "C:\HT-3000\UC_F5660\UC_F5660_main.c" 1
  29  000F              	IF (20 >= ( 040bh + __PBP__ * 2)) AND ((((20-( 9 + __PBP__ * 2))%0402h)/4+1)<=256)
  29  000F              ;# 29 "C:\HT-3000\UC_F5660\UC_F5660_main.c" 1
  29  000F              	MOV A,(20-( 9 + __PBP__ * 2))/0402h
  29  000F              ;# 29 "C:\HT-3000\UC_F5660\UC_F5660_main.c" 1
  29  000F              	MOV _builtin_holtek_delay_2,A
  29  000F              ;# 29 "C:\HT-3000\UC_F5660\UC_F5660_main.c" 1
  29  000F              	MOV A,((20-( 9 + __PBP__ * 2))%0402h)/4+1
  29  000F              ;# 29 "C:\HT-3000\UC_F5660\UC_F5660_main.c" 1
  29  000F              	fcall __DELAYY3 +3-(((20-( 9 + __PBP__ * 2))%0402h)%4) 
  29  000F              	ENDIF
  30  000F              #line 30 "C:\HT-3000\UC_F5660\UC_F5660_main.c"
  30  000F              	fcall _HT16K33_LED_ON
  30  0016  0003        	ret
  30  0017              _UC_HT16K33 endp
  30  0017              #line 30 "C:\HT-3000\UC_F5660\UC_F5660_main.c"
  30  0017              #pragma debug scope 1 1
  30  0017              ___wdtc equ [42]
  30  0017              public _main
  30  0017              #pragma debug scope 7 1
  14  0017              #line 14 "C:\HT-3000\UC_F5660\UC_F5660_main.c"
  14  0017              IFDEF WITH_DEFAULT_STARTUP
  14  0017              extern _main_initial0:near
  14  0017              extern _main_startup:near
  14  0017              ENDIF
  14  0017              
  14  0017              ROMBANK 0 @start
  14  0000              @start .section com_l 'code'
  14  0000              _main_startup1:
  14  0000              @start .section com_e 'code'
  14  0000  0F00     R  	mov a,bank _main
  14  0001  008B        	mov bp,a
  14  0002  2800     R  	jmp _main
  14  0003              
  14  0000              _main .section 'code'
  14  0000              _main proc
  14  0000              #pragma debug scope 8 7
  14  0000              ;begin block, line: 14.-1
  14  0000              #pragma debug scope 9 8
  14  0000              ;begin block, line: 14.-1
 178  0000              #line 178 "C:\HT-3000\UC_F5660\UC_F5660_main.c"
 178  0000  0FA8        	mov a,168
 178  0001  00AA        	mov [42],a
 178  0002              #pragma debug scope 8 7
 178  0002              #pragma debug scope 7 1
  18  0002              #line 18 "C:\HT-3000\UC_F5660\UC_F5660_main.c"
  18  0002              	fcall _TimeBase_Init
  21  0009              #line 21 "C:\HT-3000\UC_F5660\UC_F5660_main.c"
  21  0009              	fcall _UC_HT16K33
"File: UC_F5660_main.c  Assembler  Version HGASM0202      Page 10

  21  0010  2800     R  	jmp $
  21  0011              _main endp
  21  0011              
  21  0011              @dummy endp
  21  0011              
  21  0011              #line 21 "C:\HT-3000\UC_F5660\UC_F5660_main.c"
  21  0011              #pragma debug scope 1 1
  21  0011              public _UC_Watchdog
  21  0011              #pragma debug scope 10 1
 161  0011              #line 161 "C:\HT-3000\UC_F5660\UC_F5660_main.c"
 161  0000              _UC_Watchdog .section 'code'
 161  0000              _UC_Watchdog proc
 161  0000              public _UC_Watchdog_2
 161  0000  0002[           local _UC_Watchdog_2 db 2 dup(?)	; 2,0
            00
            ]
 161  0002              #pragma debug variable 12 10 _UC_Watchdog_2+0 "Watchdog"
 163  0002              #line 163 "C:\HT-3000\UC_F5660\UC_F5660_main.c"
 163  0000  0700     R  	mov a,_UC_Watchdog_2[0]
 163  0001  0C01        	xor a,1
 163  0002  0500     R  	or a,_UC_Watchdog_2[1]
 163  0003  390A        	snz z
 163  0004  2800     R  	jmp _L37
 164  0005              #line 164 "C:\HT-3000\UC_F5660\UC_F5660_main.c"
 164  0005  37AA        	clr [42].7
 165  0006              #line 165 "C:\HT-3000\UC_F5660\UC_F5660_main.c"
 165  0006  332A        	set [42].6
 166  0007              #line 166 "C:\HT-3000\UC_F5660\UC_F5660_main.c"
 166  0007  36AA        	clr [42].5
 167  0008              #line 167 "C:\HT-3000\UC_F5660\UC_F5660_main.c"
 167  0008  322A        	set [42].4
 168  0009              #line 168 "C:\HT-3000\UC_F5660\UC_F5660_main.c"
 168  0009  35AA        	clr [42].3
 171  000A              #line 171 "C:\HT-3000\UC_F5660\UC_F5660_main.c"
 171  000A  352A        	clr [42].2
 172  000B              #line 172 "C:\HT-3000\UC_F5660\UC_F5660_main.c"
 172  000B  34AA        	clr [42].1
 173  000C              #line 173 "C:\HT-3000\UC_F5660\UC_F5660_main.c"
 173  000C  342A        	clr [42].0
 174  000D              #line 174 "C:\HT-3000\UC_F5660\UC_F5660_main.c"
 174  000D  2800     R  	jmp _L36
 174  000E              _L37:
 178  000E              #line 178 "C:\HT-3000\UC_F5660\UC_F5660_main.c"
 178  000E  0FA8        	mov a,168
 178  000F  00AA        	mov [42],a
 178  0010              _L36:
 178  0010  0003        	ret
 178  0011              _UC_Watchdog endp
 178  0011              #line 178 "C:\HT-3000\UC_F5660\UC_F5660_main.c"
 178  0011              #pragma debug scope 1 1
 178  0011              #pragma debug struct_end
 178  0011              #pragma debug struct_end
 178  0011              #pragma debug union_end
 178  0011              #pragma debug union_end
 178  0011              #pragma debug variable 43 1 ___wdtc "__wdtc" 1
  14  0011              #line 14 "C:\HT-3000\UC_F5660\UC_F5660_main.c"
  14  0000              @code .section at 0 'code'
  14  0000  1F0B        	clr bp
  14  0001  2800     R  	jmp _main_startup1
  14  0002              
"File: UC_F5660_main.c  Assembler  Version HGASM0202      Page 11

  14  0002              extern _i2c_init:near
  14  0002              extern _i2c_start:near
  14  0002              extern _i2c_write:near
  14  0002              extern _i2c_read_ACK:near
  14  0002              extern _i2c_stop:near
  14  0002              extern _TimeBase_Init:near
  14  0002              
  14  0002              ; 
  14  0002              ; Generated by holtek-gcc v3.20, Sun Sep 06 12:59:10 2020
  14  0002              ; Rebuild 610
  14  0002              ; end of file


        0 Errors, 0