"File: UC_F5660_main.c  Assembler  Version HGASM0202      Page 1


   1  0000              ; Generated by holtek-gcc v3.20, Sun Oct 25 16:10:56 2020
   2  0000              ; 
   3  0000              ; Configuration:
   4  0000              ;       with long instruction
   5  0000              ;       Multi-ROM, Multi-RAM
   6  0000              ;       bits_per_rom_unit:16
   7  0000              ;       with mp1
   8  0000              ;       with tbhp, address(0x9)
   9  0000              ;          Use tabrd-const
  10  0000              ;       
  11  0000              ; SFR address of long-instruction arch:
  12  0000              ;    mp0 = -1,1,0
  13  0000              ;    mp1 = 4,3,2
  14  0000              ;    mp2 = 14,13,12
  15  0000              ;    tbp = 9,7,8
  16  0000              ;    acc = 5
  17  0000              ;    pcl = 6
  18  0000              ;    status = 10
  19  0000              ;    bp = 11
  20  0000              ;    intc = 16
  21  0000              ;       
  22  0000              ;       
  23  0000              ; use 'tabrdc' instead of 'tabrd'
  24  0000              ;       
  25  0000              
  26  0000              #pragma translator "holtek-gcc 4.6.4" "3.20" "build 20130711"
  27  0000              ; Rebuild 610
  28  0000              
  29  0000              ir equ [2]
  30  0000              mp equ [3]
  31  0000              sbp equ [4]
  32  0000              acc equ [5]
  33  0000              bp equ [11]
  34  0000              tblp equ [7]
  35  0000              tbhp equ [9]
  36  0000              status equ [10]
  37  0000              c equ [10].0
  38  0000              ac equ [10].1
  39  0000              z equ [10].2
  40  0000              ov equ [10].3
  41  0000              cz equ [10].6
  42  0000              sc equ [10].7
  43  0000              intc equ [16]
  44  0000              
  45  0000              extern ra:byte
  46  0000              extern rb:byte
  47  0000              extern rc:byte
  48  0000              extern rd:byte
  49  0000              extern re:byte
  50  0000              extern rf:byte
  51  0000              extern rg:byte
  52  0000              extern rh:byte
  53  0000              extern _Crom2Prom:near
  54  0000              extern _Crom2PromNext:near
  55  0000              
  56  0000              RAMBANK 0 @BITDATASEC, @BITDATASEC1
  57  0000              @HCCINIT	.section 'data'
  58  0000              @HCCINIT0	.section 'data'
  59  0000              @BITDATASEC	 .section 'data'
"File: UC_F5660_main.ASM  Assembler  Version HGASM0202      Page 2

  60  0000              @BITDATASEC1	 .section 'data'
  61  0000              
  62  0000              #pragma debug scope 1 1
  63  0000              	extern __DELAY3:near
  64  0000              	extern __DELAYX3:near
  65  0000              	extern __DELAYX6:near
  66  0000              	extern __DELAYY5:near
  67  0000              	extern __DELAYY3:near
  68  0000              	extern _builtin_holtek_delay_2:byte
  69  0000              public _Display_Number
  70  0000              #pragma debug scope 2 1

  71  0000              #line 71 "C:\HT-3000\UC_F5660\UC_F5660_main.c"
  71  0000              _Display_Number .section 'code'
  71  0000              _Display_Number proc
  71  0000              public _Display_Number_2
  71  0000  0002[           local _Display_Number_2 db 2 dup(?)	; 2,0
            00
            ]
  71  0002              #pragma debug variable 11 2 _Display_Number_2+0 "i"
  72  0002              #line 72 "C:\HT-3000\UC_F5660\UC_F5660_main.c"
  72  0000  0700     R  	mov a,_Display_Number_2[0]
  72  0001  0500     R  	or a,_Display_Number_2[1]
  72  0002  3D0A        	sz z
  72  0003  2800     R  	jmp _L3
  72  0004              #line 72 "C:\HT-3000\UC_F5660\UC_F5660_main.c"
  72  0004  0700     R  	mov a,_Display_Number_2[0]
  72  0005  0C01        	xor a,1
  72  0006  0500     R  	or a,_Display_Number_2[1]
  72  0007  3D0A        	sz z
  72  0008  2800     R  	jmp _L13
  72  0009  0700     R  	mov a,_Display_Number_2[0]
  72  000A  0C02        	xor a,2
  72  000B  0500     R  	or a,_Display_Number_2[1]
  72  000C  3D0A        	sz z
  72  000D  2800     R  	jmp _L5
  72  000E  0700     R  	mov a,_Display_Number_2[0]
  72  000F  0C03        	xor a,3
  72  0010  0500     R  	or a,_Display_Number_2[1]
  72  0011  3D0A        	sz z
  72  0012  2800     R  	jmp _L6
  72  0013  0700     R  	mov a,_Display_Number_2[0]
  72  0014  0C04        	xor a,4
  72  0015  0500     R  	or a,_Display_Number_2[1]
  72  0016  3D0A        	sz z
  72  0017  2800     R  	jmp _L7
  72  0018  0700     R  	mov a,_Display_Number_2[0]
  72  0019  0C05        	xor a,5
  72  001A  0500     R  	or a,_Display_Number_2[1]
  72  001B  3D0A        	sz z
  72  001C  2800     R  	jmp _L8
  72  001D  0700     R  	mov a,_Display_Number_2[0]
  72  001E  0C06        	xor a,6
  72  001F  0500     R  	or a,_Display_Number_2[1]
  72  0020  3D0A        	sz z
  72  0021  2800     R  	jmp _L9
  72  0022  0700     R  	mov a,_Display_Number_2[0]
  72  0023  0C07        	xor a,7
  72  0024  0500     R  	or a,_Display_Number_2[1]
  72  0025  3D0A        	sz z
"File: UC_F5660_main.c  Assembler  Version HGASM0202      Page 3

  72  0026  2800     R  	jmp _L10
  72  0027  0700     R  	mov a,_Display_Number_2[0]
  72  0028  0C08        	xor a,8
  72  0029  0500     R  	or a,_Display_Number_2[1]
  72  002A  3D0A        	sz z
  72  002B  2800     R  	jmp _L11
  72  002C  0700     R  	mov a,_Display_Number_2[0]
  72  002D  0C09        	xor a,9
  72  002E  0500     R  	or a,_Display_Number_2[1]
  72  002F  390A        	snz z
  72  0030  2800     R  	jmp _L14
  93  0031              #line 93 "C:\HT-3000\UC_F5660\UC_F5660_main.c"
  93  0031  1F00     E  	clr ra
  93  0032  0F67        	mov a,103
  93  0033  0080     E  	mov rb,a
  93  0034  2800     R  	jmp _L1
  93  0035              _L5:
  79  0035              #line 79 "C:\HT-3000\UC_F5660\UC_F5660_main.c"
  79  0035  1F00     E  	clr ra
  79  0036  0F5B        	mov a,91
  79  0037  0080     E  	mov rb,a
  79  0038  2800     R  	jmp _L1
  79  0039              _L6:
  81  0039              #line 81 "C:\HT-3000\UC_F5660\UC_F5660_main.c"
  81  0039  1F00     E  	clr ra
  81  003A  0F4F        	mov a,79
  81  003B  0080     E  	mov rb,a
  81  003C  2800     R  	jmp _L1
  81  003D              _L7:
  83  003D              #line 83 "C:\HT-3000\UC_F5660\UC_F5660_main.c"
  83  003D  1F00     E  	clr ra
  83  003E  0F66        	mov a,102
  83  003F  0080     E  	mov rb,a
  83  0040  2800     R  	jmp _L1
  83  0041              _L8:
  85  0041              #line 85 "C:\HT-3000\UC_F5660\UC_F5660_main.c"
  85  0041  1F00     E  	clr ra
  85  0042  0F6D        	mov a,109
  85  0043  0080     E  	mov rb,a
  85  0044  2800     R  	jmp _L1
  85  0045              _L9:
  87  0045              #line 87 "C:\HT-3000\UC_F5660\UC_F5660_main.c"
  87  0045  1F00     E  	clr ra
  87  0046  0F7C        	mov a,124
  87  0047  0080     E  	mov rb,a
  87  0048  2800     R  	jmp _L1
  87  0049              _L10:
  89  0049              #line 89 "C:\HT-3000\UC_F5660\UC_F5660_main.c"
  89  0049  1F00     E  	clr ra
  89  004A  0F07        	mov a,7
  89  004B  0080     E  	mov rb,a
  89  004C  2800     R  	jmp _L1
  89  004D              _L11:
  91  004D              #line 91 "C:\HT-3000\UC_F5660\UC_F5660_main.c"
  91  004D  1F00     E  	clr ra
  91  004E  0F7F        	mov a,127
  91  004F  0080     E  	mov rb,a
  91  0050  2800     R  	jmp _L1
  91  0051              _L14:
  91  0051  2800     R  	jmp _L1
"File: UC_F5660_main.c  Assembler  Version HGASM0202      Page 4

  91  0052              _L3:
  75  0052              #line 75 "C:\HT-3000\UC_F5660\UC_F5660_main.c"
  75  0052  1F00     E  	clr ra
  75  0053  0F3F        	mov a,63
  75  0054  0080     E  	mov rb,a
  75  0055  2800     R  	jmp _L1
  75  0056              _L13:
  77  0056              #line 77 "C:\HT-3000\UC_F5660\UC_F5660_main.c"
  77  0056  1F00     E  	clr ra
  77  0057  0F06        	mov a,6
  77  0058  0080     E  	mov rb,a
  77  0059              _L1:
  77  0059  0003        	ret
  77  005A              _Display_Number endp
  77  005A              #line 77 "C:\HT-3000\UC_F5660\UC_F5660_main.c"
  77  005A              #pragma debug scope 1 1
  77  005A              public _LED_COM5_TUR_ON
  77  005A              #pragma debug scope 3 1
 141  005A              #line 141 "C:\HT-3000\UC_F5660\UC_F5660_main.c"
 141  0000              _LED_COM5_TUR_ON .section 'code'
 141  0000              _LED_COM5_TUR_ON proc
 142  0000              #line 142 "C:\HT-3000\UC_F5660\UC_F5660_main.c"
 142  0000  0F05        	mov a,5
 142  0001  0080     R  	mov _CheckAddressCnt[0],a
 142  0002              _L17:
 143  0002              #line 143 "C:\HT-3000\UC_F5660\UC_F5660_main.c"
 143  0002  1E00     R  	snz _CheckAddressCnt[0]
 143  0003  2800     R  	jmp _L16
 145  0004              #line 145 "C:\HT-3000\UC_F5660\UC_F5660_main.c"
 145  0004              	fcall _i2c_start
 146  000B              #line 146 "C:\HT-3000\UC_F5660\UC_F5660_main.c"
 146  000B  0FE0        	mov a,224
 146  000C              	fcall _i2c_write
 147  0013              #line 147 "C:\HT-3000\UC_F5660\UC_F5660_main.c"
 147  0013              	fcall _i2c_read_ACK
 147  001A  0080     E  	mov ra,a
 147  001B  1080     E  	sz ra
 147  001C  2800     R  	jmp _L18
 149  001D              #line 149 "C:\HT-3000\UC_F5660\UC_F5660_main.c"
 149  001D  0F0A        	mov a,10
 149  001E              	fcall _i2c_write
 150  0025              #line 150 "C:\HT-3000\UC_F5660\UC_F5660_main.c"
 150  0025              	fcall _i2c_read_ACK
 150  002C  0080     E  	mov ra,a
 150  002D  1080     E  	sz ra
 150  002E  2800     R  	jmp _L18
 152  002F              #line 152 "C:\HT-3000\UC_F5660\UC_F5660_main.c"
 152  002F  0700     R  	mov a,_display_Buffer[10]
 152  0030  0080     E  	mov rb,a
 152  0031  0700     R  	mov a,_display_Buffer[11]
 152  0032  0080     E  	mov rc,a
 152  0033  0700     E  	mov a,rc
 152  0034  0080     E  	mov rb,a
 152  0035  1F00     E  	clr rc
 152  0036  0700     E  	mov a,rb
 152  0037              	fcall _i2c_write
 153  003E              #line 153 "C:\HT-3000\UC_F5660\UC_F5660_main.c"
 153  003E              	fcall _i2c_read_ACK
 153  0045  0080     E  	mov ra,a
 153  0046  1080     E  	sz ra
"File: UC_F5660_main.c  Assembler  Version HGASM0202      Page 5

 153  0047  2800     R  	jmp _L20
 155  0048              #line 155 "C:\HT-3000\UC_F5660\UC_F5660_main.c"
 155  0048  0700     R  	mov a,_display_Buffer[10]
 155  0049              	fcall _i2c_write
 156  0050              #line 156 "C:\HT-3000\UC_F5660\UC_F5660_main.c"
 156  0050              	fcall _i2c_read_ACK
 156  0057  0080     E  	mov ra,a
 156  0058  1080     E  	sz ra
 156  0059  2800     R  	jmp _L20
 159  005A              #line 159 "C:\HT-3000\UC_F5660\UC_F5660_main.c"
 159  005A              	fcall _i2c_stop
 160  0061              #line 160 "C:\HT-3000\UC_F5660\UC_F5660_main.c"
 160  0061  2800     R  	jmp _L16
 160  0062              _L20:
 170  0062              #line 170 "C:\HT-3000\UC_F5660\UC_F5660_main.c"
 170  0062              	fcall _i2c_stop
 171  0069              #line 171 "C:\HT-3000\UC_F5660\UC_F5660_main.c"
 171  0069              ;# 171 "C:\HT-3000\UC_F5660\UC_F5660_main.c" 1
 171  0069              	IF 10>263690
 171  0069              ;# 171 "C:\HT-3000\UC_F5660\UC_F5660_main.c" 1
 171  0069              	ERRMESSAGE 'the value 10of the argument exceeds the maxinum 263690'
 171  0069              	ENDIF
 171  0069              ;# 171 "C:\HT-3000\UC_F5660\UC_F5660_main.c" 1
 171  0069              	IF 10<0
 171  0069              ;# 171 "C:\HT-3000\UC_F5660\UC_F5660_main.c" 1
 171  0069              	ERRMESSAGE 'the value 10 of the argument exceeds the mininum 0'
 171  0069              	ENDIF
 171  0069              ;# 171 "C:\HT-3000\UC_F5660\UC_F5660_main.c" 1
 171  0069              	IF 10==0
 171  0069              ;# 171 "C:\HT-3000\UC_F5660\UC_F5660_main.c" 1
 171  0069              	JMP $
 171  0069              	ENDIF
 171  0069              ;# 171 "C:\HT-3000\UC_F5660\UC_F5660_main.c" 1
 171  0069              	IF (10>=1) AND (10<( 4 + __PBP__ * 2))
 171  0069              ;# 171 "C:\HT-3000\UC_F5660\UC_F5660_main.c" 1
 171  0069              	NOP
 171  0069              	ENDIF
 171  0069              ;# 171 "C:\HT-3000\UC_F5660\UC_F5660_main.c" 1
 171  0069              	IF (10>=2) AND (10<( 4 + __PBP__ * 2))
 171  0069              ;# 171 "C:\HT-3000\UC_F5660\UC_F5660_main.c" 1
 171  0069              	NOP
 171  0069              	ENDIF
 171  0069              ;# 171 "C:\HT-3000\UC_F5660\UC_F5660_main.c" 1
 171  0069              	IF (10>=3) AND (10<( 4 + __PBP__ * 2))
 171  0069              ;# 171 "C:\HT-3000\UC_F5660\UC_F5660_main.c" 1
 171  0069              	NOP
 171  0069              	ENDIF
 171  0069              ;# 171 "C:\HT-3000\UC_F5660\UC_F5660_main.c" 1
 171  0069              	IF (10>=4) AND (10<( 4 + __PBP__ * 2)) AND ( __PBP__ > 0 )
 171  0069              ;# 171 "C:\HT-3000\UC_F5660\UC_F5660_main.c" 1
 171  0069              	NOP
 171  0069              	ENDIF
 171  0069              ;# 171 "C:\HT-3000\UC_F5660\UC_F5660_main.c" 1
 171  0069              	IF (10>=5) AND (10<( 4 + __PBP__ * 2)) AND ( __PBP__ > 0 )
 171  0069              ;# 171 "C:\HT-3000\UC_F5660\UC_F5660_main.c" 1
 171  0069              	NOP
 171  0069              	ENDIF
 171  0069              ;# 171 "C:\HT-3000\UC_F5660\UC_F5660_main.c" 1
 171  0069              	IF (10>=6) AND (10<( 4 + __PBP__ * 2))  AND ( __PBP__ > 1 )
 171  0069              ;# 171 "C:\HT-3000\UC_F5660\UC_F5660_main.c" 1
"File: UC_F5660_main.c  Assembler  Version HGASM0202      Page 6

 171  0069              	NOP
 171  0069              	ENDIF
 171  0069              ;# 171 "C:\HT-3000\UC_F5660\UC_F5660_main.c" 1
 171  0069              	IF (10>=7) AND (10<( 4 + __PBP__ * 2))  AND ( __PBP__ > 1 )
 171  0069              ;# 171 "C:\HT-3000\UC_F5660\UC_F5660_main.c" 1
 171  0069              	NOP
 171  0069              	ENDIF
 171  0069              ;# 171 "C:\HT-3000\UC_F5660\UC_F5660_main.c" 1
 171  0069              	IF (10>=8) AND (10<( 4 + __PBP__ * 2))  AND ( __PBP__ > 2 )
 171  0069              ;# 171 "C:\HT-3000\UC_F5660\UC_F5660_main.c" 1
 171  0069              	NOP
 171  0069              	ENDIF
 171  0069              ;# 171 "C:\HT-3000\UC_F5660\UC_F5660_main.c" 1
 171  0069              	IF (10==9)  AND ( __PBP__ > 2 )
 171  0069              ;# 171 "C:\HT-3000\UC_F5660\UC_F5660_main.c" 1
 171  0069              	NOP
 171  0069              	ENDIF
 171  0069              ;# 171 "C:\HT-3000\UC_F5660\UC_F5660_main.c" 1
 171  0069              	IF (10< ( 8 + __PBP__ * 2)) AND (10>( 3 + __PBP__ * 2))
 171  0069              ;# 171 "C:\HT-3000\UC_F5660\UC_F5660_main.c" 1
 171  0069              	fcall __DELAY3 + ( 7 + __PBP__ * 2) -10
 171  0069              	ENDIF
 171  0069              ;# 171 "C:\HT-3000\UC_F5660\UC_F5660_main.c" 1
 171  0069              	IF (10< ( 0404h + __PBP__ * 2)) AND (10>( 7 + __PBP__ * 2))
 171  0069              ;# 171 "C:\HT-3000\UC_F5660\UC_F5660_main.c" 1
 171  0069  0F01        	MOV A,(10-( 4 + __PBP__ * 2))/4
 171  006A              ;# 171 "C:\HT-3000\UC_F5660\UC_F5660_main.c" 1
 171  006A              	fcall __DELAYX3 + 3 -((10-( 4 + __PBP__ * 2)) MOD 4) 
 171  0071              	ENDIF
 171  0071              ;# 171 "C:\HT-3000\UC_F5660\UC_F5660_main.c" 1
 171  0071              	IF (10< ( 040bh + __PBP__ * 2)) AND (10> ( 0403h + __PBP__ * 2))
 171  0071              ;# 171 "C:\HT-3000\UC_F5660\UC_F5660_main.c" 1
 171  0071              	MOV A,0 
 171  0071              ;# 171 "C:\HT-3000\UC_F5660\UC_F5660_main.c" 1
 171  0071              	fcall __DELAYX6 + ( 040ah + __PBP__ * 2) -10
 171  0071              	ENDIF
 171  0071              ;# 171 "C:\HT-3000\UC_F5660\UC_F5660_main.c" 1
 171  0071              	IF (10 >= ( 040bh + __PBP__ * 2)) AND ((((10-( 9 + __PBP__ * 2))%0402h)/4+1)>256)
 171  0071              ;# 171 "C:\HT-3000\UC_F5660\UC_F5660_main.c" 1
 171  0071              	MOV A,(10-( 9 + __PBP__ * 2))/0402h
 171  0071              ;# 171 "C:\HT-3000\UC_F5660\UC_F5660_main.c" 1
 171  0071              	MOV _builtin_holtek_delay_2,A
 171  0071              ;# 171 "C:\HT-3000\UC_F5660\UC_F5660_main.c" 1
 171  0071              	MOV A,0
 171  0071              ;# 171 "C:\HT-3000\UC_F5660\UC_F5660_main.c" 1
 171  0071              	fcall __DELAYY5 +5- (((10-( 9 + __PBP__ * 2))%0402h)%6) 
 171  0071              	ENDIF
 171  0071              ;# 171 "C:\HT-3000\UC_F5660\UC_F5660_main.c" 1
 171  0071              	IF (10 >= ( 040bh + __PBP__ * 2)) AND ((((10-( 9 + __PBP__ * 2))%0402h)/4+1)<=256)
 171  0071              ;# 171 "C:\HT-3000\UC_F5660\UC_F5660_main.c" 1
 171  0071              	MOV A,(10-( 9 + __PBP__ * 2))/0402h
 171  0071              ;# 171 "C:\HT-3000\UC_F5660\UC_F5660_main.c" 1
 171  0071              	MOV _builtin_holtek_delay_2,A
 171  0071              ;# 171 "C:\HT-3000\UC_F5660\UC_F5660_main.c" 1
 171  0071              	MOV A,((10-( 9 + __PBP__ * 2))%0402h)/4+1
 171  0071              ;# 171 "C:\HT-3000\UC_F5660\UC_F5660_main.c" 1
 171  0071              	fcall __DELAYY3 +3-(((10-( 9 + __PBP__ * 2))%0402h)%4) 
 171  0071              	ENDIF
 172  0071              #line 172 "C:\HT-3000\UC_F5660\UC_F5660_main.c"
 172  0071  1580     R  	dec _CheckAddressCnt[0]
"File: UC_F5660_main.c  Assembler  Version HGASM0202      Page 7

 173  0072              #line 173 "C:\HT-3000\UC_F5660\UC_F5660_main.c"
 173  0072  2800     R  	jmp _L16
 173  0073              _L18:
 183  0073              #line 183 "C:\HT-3000\UC_F5660\UC_F5660_main.c"
 183  0073              	fcall _i2c_stop
 184  007A              #line 184 "C:\HT-3000\UC_F5660\UC_F5660_main.c"
 184  007A              ;# 184 "C:\HT-3000\UC_F5660\UC_F5660_main.c" 1
 184  007A              	IF 10>263690
 184  007A              ;# 184 "C:\HT-3000\UC_F5660\UC_F5660_main.c" 1
 184  007A              	ERRMESSAGE 'the value 10of the argument exceeds the maxinum 263690'
 184  007A              	ENDIF
 184  007A              ;# 184 "C:\HT-3000\UC_F5660\UC_F5660_main.c" 1
 184  007A              	IF 10<0
 184  007A              ;# 184 "C:\HT-3000\UC_F5660\UC_F5660_main.c" 1
 184  007A              	ERRMESSAGE 'the value 10 of the argument exceeds the mininum 0'
 184  007A              	ENDIF
 184  007A              ;# 184 "C:\HT-3000\UC_F5660\UC_F5660_main.c" 1
 184  007A              	IF 10==0
 184  007A              ;# 184 "C:\HT-3000\UC_F5660\UC_F5660_main.c" 1
 184  007A              	JMP $
 184  007A              	ENDIF
 184  007A              ;# 184 "C:\HT-3000\UC_F5660\UC_F5660_main.c" 1
 184  007A              	IF (10>=1) AND (10<( 4 + __PBP__ * 2))
 184  007A              ;# 184 "C:\HT-3000\UC_F5660\UC_F5660_main.c" 1
 184  007A              	NOP
 184  007A              	ENDIF
 184  007A              ;# 184 "C:\HT-3000\UC_F5660\UC_F5660_main.c" 1
 184  007A              	IF (10>=2) AND (10<( 4 + __PBP__ * 2))
 184  007A              ;# 184 "C:\HT-3000\UC_F5660\UC_F5660_main.c" 1
 184  007A              	NOP
 184  007A              	ENDIF
 184  007A              ;# 184 "C:\HT-3000\UC_F5660\UC_F5660_main.c" 1
 184  007A              	IF (10>=3) AND (10<( 4 + __PBP__ * 2))
 184  007A              ;# 184 "C:\HT-3000\UC_F5660\UC_F5660_main.c" 1
 184  007A              	NOP
 184  007A              	ENDIF
 184  007A              ;# 184 "C:\HT-3000\UC_F5660\UC_F5660_main.c" 1
 184  007A              	IF (10>=4) AND (10<( 4 + __PBP__ * 2)) AND ( __PBP__ > 0 )
 184  007A              ;# 184 "C:\HT-3000\UC_F5660\UC_F5660_main.c" 1
 184  007A              	NOP
 184  007A              	ENDIF
 184  007A              ;# 184 "C:\HT-3000\UC_F5660\UC_F5660_main.c" 1
 184  007A              	IF (10>=5) AND (10<( 4 + __PBP__ * 2)) AND ( __PBP__ > 0 )
 184  007A              ;# 184 "C:\HT-3000\UC_F5660\UC_F5660_main.c" 1
 184  007A              	NOP
 184  007A              	ENDIF
 184  007A              ;# 184 "C:\HT-3000\UC_F5660\UC_F5660_main.c" 1
 184  007A              	IF (10>=6) AND (10<( 4 + __PBP__ * 2))  AND ( __PBP__ > 1 )
 184  007A              ;# 184 "C:\HT-3000\UC_F5660\UC_F5660_main.c" 1
 184  007A              	NOP
 184  007A              	ENDIF
 184  007A              ;# 184 "C:\HT-3000\UC_F5660\UC_F5660_main.c" 1
 184  007A              	IF (10>=7) AND (10<( 4 + __PBP__ * 2))  AND ( __PBP__ > 1 )
 184  007A              ;# 184 "C:\HT-3000\UC_F5660\UC_F5660_main.c" 1
 184  007A              	NOP
 184  007A              	ENDIF
 184  007A              ;# 184 "C:\HT-3000\UC_F5660\UC_F5660_main.c" 1
 184  007A              	IF (10>=8) AND (10<( 4 + __PBP__ * 2))  AND ( __PBP__ > 2 )
 184  007A              ;# 184 "C:\HT-3000\UC_F5660\UC_F5660_main.c" 1
 184  007A              	NOP
"File: UC_F5660_main.c  Assembler  Version HGASM0202      Page 8

 184  007A              	ENDIF
 184  007A              ;# 184 "C:\HT-3000\UC_F5660\UC_F5660_main.c" 1
 184  007A              	IF (10==9)  AND ( __PBP__ > 2 )
 184  007A              ;# 184 "C:\HT-3000\UC_F5660\UC_F5660_main.c" 1
 184  007A              	NOP
 184  007A              	ENDIF
 184  007A              ;# 184 "C:\HT-3000\UC_F5660\UC_F5660_main.c" 1
 184  007A              	IF (10< ( 8 + __PBP__ * 2)) AND (10>( 3 + __PBP__ * 2))
 184  007A              ;# 184 "C:\HT-3000\UC_F5660\UC_F5660_main.c" 1
 184  007A              	fcall __DELAY3 + ( 7 + __PBP__ * 2) -10
 184  007A              	ENDIF
 184  007A              ;# 184 "C:\HT-3000\UC_F5660\UC_F5660_main.c" 1
 184  007A              	IF (10< ( 0404h + __PBP__ * 2)) AND (10>( 7 + __PBP__ * 2))
 184  007A              ;# 184 "C:\HT-3000\UC_F5660\UC_F5660_main.c" 1
 184  007A  0F01        	MOV A,(10-( 4 + __PBP__ * 2))/4
 184  007B              ;# 184 "C:\HT-3000\UC_F5660\UC_F5660_main.c" 1
 184  007B              	fcall __DELAYX3 + 3 -((10-( 4 + __PBP__ * 2)) MOD 4) 
 184  0082              	ENDIF
 184  0082              ;# 184 "C:\HT-3000\UC_F5660\UC_F5660_main.c" 1
 184  0082              	IF (10< ( 040bh + __PBP__ * 2)) AND (10> ( 0403h + __PBP__ * 2))
 184  0082              ;# 184 "C:\HT-3000\UC_F5660\UC_F5660_main.c" 1
 184  0082              	MOV A,0 
 184  0082              ;# 184 "C:\HT-3000\UC_F5660\UC_F5660_main.c" 1
 184  0082              	fcall __DELAYX6 + ( 040ah + __PBP__ * 2) -10
 184  0082              	ENDIF
 184  0082              ;# 184 "C:\HT-3000\UC_F5660\UC_F5660_main.c" 1
 184  0082              	IF (10 >= ( 040bh + __PBP__ * 2)) AND ((((10-( 9 + __PBP__ * 2))%0402h)/4+1)>256)
 184  0082              ;# 184 "C:\HT-3000\UC_F5660\UC_F5660_main.c" 1
 184  0082              	MOV A,(10-( 9 + __PBP__ * 2))/0402h
 184  0082              ;# 184 "C:\HT-3000\UC_F5660\UC_F5660_main.c" 1
 184  0082              	MOV _builtin_holtek_delay_2,A
 184  0082              ;# 184 "C:\HT-3000\UC_F5660\UC_F5660_main.c" 1
 184  0082              	MOV A,0
 184  0082              ;# 184 "C:\HT-3000\UC_F5660\UC_F5660_main.c" 1
 184  0082              	fcall __DELAYY5 +5- (((10-( 9 + __PBP__ * 2))%0402h)%6) 
 184  0082              	ENDIF
 184  0082              ;# 184 "C:\HT-3000\UC_F5660\UC_F5660_main.c" 1
 184  0082              	IF (10 >= ( 040bh + __PBP__ * 2)) AND ((((10-( 9 + __PBP__ * 2))%0402h)/4+1)<=256)
 184  0082              ;# 184 "C:\HT-3000\UC_F5660\UC_F5660_main.c" 1
 184  0082              	MOV A,(10-( 9 + __PBP__ * 2))/0402h
 184  0082              ;# 184 "C:\HT-3000\UC_F5660\UC_F5660_main.c" 1
 184  0082              	MOV _builtin_holtek_delay_2,A
 184  0082              ;# 184 "C:\HT-3000\UC_F5660\UC_F5660_main.c" 1
 184  0082              	MOV A,((10-( 9 + __PBP__ * 2))%0402h)/4+1
 184  0082              ;# 184 "C:\HT-3000\UC_F5660\UC_F5660_main.c" 1
 184  0082              	fcall __DELAYY3 +3-(((10-( 9 + __PBP__ * 2))%0402h)%4) 
 184  0082              	ENDIF
 185  0082              #line 185 "C:\HT-3000\UC_F5660\UC_F5660_main.c"
 185  0082  1580     R  	dec _CheckAddressCnt[0]
 186  0083              #line 186 "C:\HT-3000\UC_F5660\UC_F5660_main.c"
 186  0083  2800     R  	jmp _L17
 186  0084              _L16:
 186  0084  0003        	ret
 186  0085              _LED_COM5_TUR_ON endp
 186  0085              #line 186 "C:\HT-3000\UC_F5660\UC_F5660_main.c"
 186  0085              #pragma debug scope 1 1
 186  0085              public _init_HT16K33
 186  0085              #pragma debug scope 4 1
 195  0085              #line 195 "C:\HT-3000\UC_F5660\UC_F5660_main.c"
 195  0000              _init_HT16K33 .section 'code'
"File: UC_F5660_main.c  Assembler  Version HGASM0202      Page 9

 195  0000              _init_HT16K33 proc
 195  0000  00              local _init_HT16K33_2 db 1 dup(?)	; 0,1
 196  0001              #line 196 "C:\HT-3000\UC_F5660\UC_F5660_main.c"
 196  0000              	fcall _i2c_init
 196  0007  0F04        	mov a,4
 196  0008  0080     R  	mov _init_HT16K33_2[0],a
 196  0009              _L30:
 203  0009              #line 203 "C:\HT-3000\UC_F5660\UC_F5660_main.c"
 203  0009              	fcall _i2c_start
 204  0010              #line 204 "C:\HT-3000\UC_F5660\UC_F5660_main.c"
 204  0010  0FE0        	mov a,224
 204  0011              	fcall _i2c_write
 205  0018              #line 205 "C:\HT-3000\UC_F5660\UC_F5660_main.c"
 205  0018              	fcall _i2c_read_ACK
 205  001F  0080     E  	mov ra,a
 205  0020  1080     E  	sz ra
 205  0021  2800     R  	jmp _L26
 208  0022              #line 208 "C:\HT-3000\UC_F5660\UC_F5660_main.c"
 208  0022  0F21        	mov a,33
 208  0023              	fcall _i2c_write
 209  002A              #line 209 "C:\HT-3000\UC_F5660\UC_F5660_main.c"
 209  002A              	fcall _i2c_read_ACK
 209  0031  0080     E  	mov ra,a
 209  0032  1080     E  	sz ra
 209  0033  2800     R  	jmp _L26
 211  0034              #line 211 "C:\HT-3000\UC_F5660\UC_F5660_main.c"
 211  0034              	fcall _i2c_stop
 212  003B              #line 212 "C:\HT-3000\UC_F5660\UC_F5660_main.c"
 212  003B  2800     R  	jmp _L28
 212  003C              _L26:
 220  003C              #line 220 "C:\HT-3000\UC_F5660\UC_F5660_main.c"
 220  003C              	fcall _i2c_stop
 221  0043              #line 221 "C:\HT-3000\UC_F5660\UC_F5660_main.c"
 221  0043              ;# 221 "C:\HT-3000\UC_F5660\UC_F5660_main.c" 1
 221  0043              	IF 10>263690
 221  0043              ;# 221 "C:\HT-3000\UC_F5660\UC_F5660_main.c" 1
 221  0043              	ERRMESSAGE 'the value 10of the argument exceeds the maxinum 263690'
 221  0043              	ENDIF
 221  0043              ;# 221 "C:\HT-3000\UC_F5660\UC_F5660_main.c" 1
 221  0043              	IF 10<0
 221  0043              ;# 221 "C:\HT-3000\UC_F5660\UC_F5660_main.c" 1
 221  0043              	ERRMESSAGE 'the value 10 of the argument exceeds the mininum 0'
 221  0043              	ENDIF
 221  0043              ;# 221 "C:\HT-3000\UC_F5660\UC_F5660_main.c" 1
 221  0043              	IF 10==0
 221  0043              ;# 221 "C:\HT-3000\UC_F5660\UC_F5660_main.c" 1
 221  0043              	JMP $
 221  0043              	ENDIF
 221  0043              ;# 221 "C:\HT-3000\UC_F5660\UC_F5660_main.c" 1
 221  0043              	IF (10>=1) AND (10<( 4 + __PBP__ * 2))
 221  0043              ;# 221 "C:\HT-3000\UC_F5660\UC_F5660_main.c" 1
 221  0043              	NOP
 221  0043              	ENDIF
 221  0043              ;# 221 "C:\HT-3000\UC_F5660\UC_F5660_main.c" 1
 221  0043              	IF (10>=2) AND (10<( 4 + __PBP__ * 2))
 221  0043              ;# 221 "C:\HT-3000\UC_F5660\UC_F5660_main.c" 1
 221  0043              	NOP
 221  0043              	ENDIF
 221  0043              ;# 221 "C:\HT-3000\UC_F5660\UC_F5660_main.c" 1
 221  0043              	IF (10>=3) AND (10<( 4 + __PBP__ * 2))
"File: UC_F5660_main.c  Assembler  Version HGASM0202      Page 10

 221  0043              ;# 221 "C:\HT-3000\UC_F5660\UC_F5660_main.c" 1
 221  0043              	NOP
 221  0043              	ENDIF
 221  0043              ;# 221 "C:\HT-3000\UC_F5660\UC_F5660_main.c" 1
 221  0043              	IF (10>=4) AND (10<( 4 + __PBP__ * 2)) AND ( __PBP__ > 0 )
 221  0043              ;# 221 "C:\HT-3000\UC_F5660\UC_F5660_main.c" 1
 221  0043              	NOP
 221  0043              	ENDIF
 221  0043              ;# 221 "C:\HT-3000\UC_F5660\UC_F5660_main.c" 1
 221  0043              	IF (10>=5) AND (10<( 4 + __PBP__ * 2)) AND ( __PBP__ > 0 )
 221  0043              ;# 221 "C:\HT-3000\UC_F5660\UC_F5660_main.c" 1
 221  0043              	NOP
 221  0043              	ENDIF
 221  0043              ;# 221 "C:\HT-3000\UC_F5660\UC_F5660_main.c" 1
 221  0043              	IF (10>=6) AND (10<( 4 + __PBP__ * 2))  AND ( __PBP__ > 1 )
 221  0043              ;# 221 "C:\HT-3000\UC_F5660\UC_F5660_main.c" 1
 221  0043              	NOP
 221  0043              	ENDIF
 221  0043              ;# 221 "C:\HT-3000\UC_F5660\UC_F5660_main.c" 1
 221  0043              	IF (10>=7) AND (10<( 4 + __PBP__ * 2))  AND ( __PBP__ > 1 )
 221  0043              ;# 221 "C:\HT-3000\UC_F5660\UC_F5660_main.c" 1
 221  0043              	NOP
 221  0043              	ENDIF
 221  0043              ;# 221 "C:\HT-3000\UC_F5660\UC_F5660_main.c" 1
 221  0043              	IF (10>=8) AND (10<( 4 + __PBP__ * 2))  AND ( __PBP__ > 2 )
 221  0043              ;# 221 "C:\HT-3000\UC_F5660\UC_F5660_main.c" 1
 221  0043              	NOP
 221  0043              	ENDIF
 221  0043              ;# 221 "C:\HT-3000\UC_F5660\UC_F5660_main.c" 1
 221  0043              	IF (10==9)  AND ( __PBP__ > 2 )
 221  0043              ;# 221 "C:\HT-3000\UC_F5660\UC_F5660_main.c" 1
 221  0043              	NOP
 221  0043              	ENDIF
 221  0043              ;# 221 "C:\HT-3000\UC_F5660\UC_F5660_main.c" 1
 221  0043              	IF (10< ( 8 + __PBP__ * 2)) AND (10>( 3 + __PBP__ * 2))
 221  0043              ;# 221 "C:\HT-3000\UC_F5660\UC_F5660_main.c" 1
 221  0043              	fcall __DELAY3 + ( 7 + __PBP__ * 2) -10
 221  0043              	ENDIF
 221  0043              ;# 221 "C:\HT-3000\UC_F5660\UC_F5660_main.c" 1
 221  0043              	IF (10< ( 0404h + __PBP__ * 2)) AND (10>( 7 + __PBP__ * 2))
 221  0043              ;# 221 "C:\HT-3000\UC_F5660\UC_F5660_main.c" 1
 221  0043  0F01        	MOV A,(10-( 4 + __PBP__ * 2))/4
 221  0044              ;# 221 "C:\HT-3000\UC_F5660\UC_F5660_main.c" 1
 221  0044              	fcall __DELAYX3 + 3 -((10-( 4 + __PBP__ * 2)) MOD 4) 
 221  004B              	ENDIF
 221  004B              ;# 221 "C:\HT-3000\UC_F5660\UC_F5660_main.c" 1
 221  004B              	IF (10< ( 040bh + __PBP__ * 2)) AND (10> ( 0403h + __PBP__ * 2))
 221  004B              ;# 221 "C:\HT-3000\UC_F5660\UC_F5660_main.c" 1
 221  004B              	MOV A,0 
 221  004B              ;# 221 "C:\HT-3000\UC_F5660\UC_F5660_main.c" 1
 221  004B              	fcall __DELAYX6 + ( 040ah + __PBP__ * 2) -10
 221  004B              	ENDIF
 221  004B              ;# 221 "C:\HT-3000\UC_F5660\UC_F5660_main.c" 1
 221  004B              	IF (10 >= ( 040bh + __PBP__ * 2)) AND ((((10-( 9 + __PBP__ * 2))%0402h)/4+1)>256)
 221  004B              ;# 221 "C:\HT-3000\UC_F5660\UC_F5660_main.c" 1
 221  004B              	MOV A,(10-( 9 + __PBP__ * 2))/0402h
 221  004B              ;# 221 "C:\HT-3000\UC_F5660\UC_F5660_main.c" 1
 221  004B              	MOV _builtin_holtek_delay_2,A
 221  004B              ;# 221 "C:\HT-3000\UC_F5660\UC_F5660_main.c" 1
 221  004B              	MOV A,0
"File: UC_F5660_main.c  Assembler  Version HGASM0202      Page 11

 221  004B              ;# 221 "C:\HT-3000\UC_F5660\UC_F5660_main.c" 1
 221  004B              	fcall __DELAYY5 +5- (((10-( 9 + __PBP__ * 2))%0402h)%6) 
 221  004B              	ENDIF
 221  004B              ;# 221 "C:\HT-3000\UC_F5660\UC_F5660_main.c" 1
 221  004B              	IF (10 >= ( 040bh + __PBP__ * 2)) AND ((((10-( 9 + __PBP__ * 2))%0402h)/4+1)<=256)
 221  004B              ;# 221 "C:\HT-3000\UC_F5660\UC_F5660_main.c" 1
 221  004B              	MOV A,(10-( 9 + __PBP__ * 2))/0402h
 221  004B              ;# 221 "C:\HT-3000\UC_F5660\UC_F5660_main.c" 1
 221  004B              	MOV _builtin_holtek_delay_2,A
 221  004B              ;# 221 "C:\HT-3000\UC_F5660\UC_F5660_main.c" 1
 221  004B              	MOV A,((10-( 9 + __PBP__ * 2))%0402h)/4+1
 221  004B              ;# 221 "C:\HT-3000\UC_F5660\UC_F5660_main.c" 1
 221  004B              	fcall __DELAYY3 +3-(((10-( 9 + __PBP__ * 2))%0402h)%4) 
 221  004B              	ENDIF
 221  004B  1580     R  	dec _init_HT16K33_2[0]
 200  004C              #line 200 "C:\HT-3000\UC_F5660\UC_F5660_main.c"
 200  004C  1600     R  	siza _init_HT16K33_2[0]
 200  004D  2800     R  	jmp _L30
 200  004E              _L28:
 226  004E              #line 226 "C:\HT-3000\UC_F5660\UC_F5660_main.c"
 226  004E              ;# 226 "C:\HT-3000\UC_F5660\UC_F5660_main.c" 1
 226  004E              	IF 10>263690
 226  004E              ;# 226 "C:\HT-3000\UC_F5660\UC_F5660_main.c" 1
 226  004E              	ERRMESSAGE 'the value 10of the argument exceeds the maxinum 263690'
 226  004E              	ENDIF
 226  004E              ;# 226 "C:\HT-3000\UC_F5660\UC_F5660_main.c" 1
 226  004E              	IF 10<0
 226  004E              ;# 226 "C:\HT-3000\UC_F5660\UC_F5660_main.c" 1
 226  004E              	ERRMESSAGE 'the value 10 of the argument exceeds the mininum 0'
 226  004E              	ENDIF
 226  004E              ;# 226 "C:\HT-3000\UC_F5660\UC_F5660_main.c" 1
 226  004E              	IF 10==0
 226  004E              ;# 226 "C:\HT-3000\UC_F5660\UC_F5660_main.c" 1
 226  004E              	JMP $
 226  004E              	ENDIF
 226  004E              ;# 226 "C:\HT-3000\UC_F5660\UC_F5660_main.c" 1
 226  004E              	IF (10>=1) AND (10<( 4 + __PBP__ * 2))
 226  004E              ;# 226 "C:\HT-3000\UC_F5660\UC_F5660_main.c" 1
 226  004E              	NOP
 226  004E              	ENDIF
 226  004E              ;# 226 "C:\HT-3000\UC_F5660\UC_F5660_main.c" 1
 226  004E              	IF (10>=2) AND (10<( 4 + __PBP__ * 2))
 226  004E              ;# 226 "C:\HT-3000\UC_F5660\UC_F5660_main.c" 1
 226  004E              	NOP
 226  004E              	ENDIF
 226  004E              ;# 226 "C:\HT-3000\UC_F5660\UC_F5660_main.c" 1
 226  004E              	IF (10>=3) AND (10<( 4 + __PBP__ * 2))
 226  004E              ;# 226 "C:\HT-3000\UC_F5660\UC_F5660_main.c" 1
 226  004E              	NOP
 226  004E              	ENDIF
 226  004E              ;# 226 "C:\HT-3000\UC_F5660\UC_F5660_main.c" 1
 226  004E              	IF (10>=4) AND (10<( 4 + __PBP__ * 2)) AND ( __PBP__ > 0 )
 226  004E              ;# 226 "C:\HT-3000\UC_F5660\UC_F5660_main.c" 1
 226  004E              	NOP
 226  004E              	ENDIF
 226  004E              ;# 226 "C:\HT-3000\UC_F5660\UC_F5660_main.c" 1
 226  004E              	IF (10>=5) AND (10<( 4 + __PBP__ * 2)) AND ( __PBP__ > 0 )
 226  004E              ;# 226 "C:\HT-3000\UC_F5660\UC_F5660_main.c" 1
 226  004E              	NOP
 226  004E              	ENDIF
"File: UC_F5660_main.c  Assembler  Version HGASM0202      Page 12

 226  004E              ;# 226 "C:\HT-3000\UC_F5660\UC_F5660_main.c" 1
 226  004E              	IF (10>=6) AND (10<( 4 + __PBP__ * 2))  AND ( __PBP__ > 1 )
 226  004E              ;# 226 "C:\HT-3000\UC_F5660\UC_F5660_main.c" 1
 226  004E              	NOP
 226  004E              	ENDIF
 226  004E              ;# 226 "C:\HT-3000\UC_F5660\UC_F5660_main.c" 1
 226  004E              	IF (10>=7) AND (10<( 4 + __PBP__ * 2))  AND ( __PBP__ > 1 )
 226  004E              ;# 226 "C:\HT-3000\UC_F5660\UC_F5660_main.c" 1
 226  004E              	NOP
 226  004E              	ENDIF
 226  004E              ;# 226 "C:\HT-3000\UC_F5660\UC_F5660_main.c" 1
 226  004E              	IF (10>=8) AND (10<( 4 + __PBP__ * 2))  AND ( __PBP__ > 2 )
 226  004E              ;# 226 "C:\HT-3000\UC_F5660\UC_F5660_main.c" 1
 226  004E              	NOP
 226  004E              	ENDIF
 226  004E              ;# 226 "C:\HT-3000\UC_F5660\UC_F5660_main.c" 1
 226  004E              	IF (10==9)  AND ( __PBP__ > 2 )
 226  004E              ;# 226 "C:\HT-3000\UC_F5660\UC_F5660_main.c" 1
 226  004E              	NOP
 226  004E              	ENDIF
 226  004E              ;# 226 "C:\HT-3000\UC_F5660\UC_F5660_main.c" 1
 226  004E              	IF (10< ( 8 + __PBP__ * 2)) AND (10>( 3 + __PBP__ * 2))
 226  004E              ;# 226 "C:\HT-3000\UC_F5660\UC_F5660_main.c" 1
 226  004E              	fcall __DELAY3 + ( 7 + __PBP__ * 2) -10
 226  004E              	ENDIF
 226  004E              ;# 226 "C:\HT-3000\UC_F5660\UC_F5660_main.c" 1
 226  004E              	IF (10< ( 0404h + __PBP__ * 2)) AND (10>( 7 + __PBP__ * 2))
 226  004E              ;# 226 "C:\HT-3000\UC_F5660\UC_F5660_main.c" 1
 226  004E  0F01        	MOV A,(10-( 4 + __PBP__ * 2))/4
 226  004F              ;# 226 "C:\HT-3000\UC_F5660\UC_F5660_main.c" 1
 226  004F              	fcall __DELAYX3 + 3 -((10-( 4 + __PBP__ * 2)) MOD 4) 
 226  0056              	ENDIF
 226  0056              ;# 226 "C:\HT-3000\UC_F5660\UC_F5660_main.c" 1
 226  0056              	IF (10< ( 040bh + __PBP__ * 2)) AND (10> ( 0403h + __PBP__ * 2))
 226  0056              ;# 226 "C:\HT-3000\UC_F5660\UC_F5660_main.c" 1
 226  0056              	MOV A,0 
 226  0056              ;# 226 "C:\HT-3000\UC_F5660\UC_F5660_main.c" 1
 226  0056              	fcall __DELAYX6 + ( 040ah + __PBP__ * 2) -10
 226  0056              	ENDIF
 226  0056              ;# 226 "C:\HT-3000\UC_F5660\UC_F5660_main.c" 1
 226  0056              	IF (10 >= ( 040bh + __PBP__ * 2)) AND ((((10-( 9 + __PBP__ * 2))%0402h)/4+1)>256)
 226  0056              ;# 226 "C:\HT-3000\UC_F5660\UC_F5660_main.c" 1
 226  0056              	MOV A,(10-( 9 + __PBP__ * 2))/0402h
 226  0056              ;# 226 "C:\HT-3000\UC_F5660\UC_F5660_main.c" 1
 226  0056              	MOV _builtin_holtek_delay_2,A
 226  0056              ;# 226 "C:\HT-3000\UC_F5660\UC_F5660_main.c" 1
 226  0056              	MOV A,0
 226  0056              ;# 226 "C:\HT-3000\UC_F5660\UC_F5660_main.c" 1
 226  0056              	fcall __DELAYY5 +5- (((10-( 9 + __PBP__ * 2))%0402h)%6) 
 226  0056              	ENDIF
 226  0056              ;# 226 "C:\HT-3000\UC_F5660\UC_F5660_main.c" 1
 226  0056              	IF (10 >= ( 040bh + __PBP__ * 2)) AND ((((10-( 9 + __PBP__ * 2))%0402h)/4+1)<=256)
 226  0056              ;# 226 "C:\HT-3000\UC_F5660\UC_F5660_main.c" 1
 226  0056              	MOV A,(10-( 9 + __PBP__ * 2))/0402h
 226  0056              ;# 226 "C:\HT-3000\UC_F5660\UC_F5660_main.c" 1
 226  0056              	MOV _builtin_holtek_delay_2,A
 226  0056              ;# 226 "C:\HT-3000\UC_F5660\UC_F5660_main.c" 1
 226  0056              	MOV A,((10-( 9 + __PBP__ * 2))%0402h)/4+1
 226  0056              ;# 226 "C:\HT-3000\UC_F5660\UC_F5660_main.c" 1
 226  0056              	fcall __DELAYY3 +3-(((10-( 9 + __PBP__ * 2))%0402h)%4) 
"File: UC_F5660_main.c  Assembler  Version HGASM0202      Page 13

 226  0056              	ENDIF
 226  0056  0F04        	mov a,4
 226  0057  0080     R  	mov _init_HT16K33_2[0],a
 226  0058              _L35:
 233  0058              #line 233 "C:\HT-3000\UC_F5660\UC_F5660_main.c"
 233  0058              	fcall _i2c_start
 234  005F              #line 234 "C:\HT-3000\UC_F5660\UC_F5660_main.c"
 234  005F  0FE0        	mov a,224
 234  0060              	fcall _i2c_write
 235  0067              #line 235 "C:\HT-3000\UC_F5660\UC_F5660_main.c"
 235  0067              	fcall _i2c_read_ACK
 235  006E  0080     E  	mov ra,a
 235  006F  1080     E  	sz ra
 235  0070  2800     R  	jmp _L31
 238  0071              #line 238 "C:\HT-3000\UC_F5660\UC_F5660_main.c"
 238  0071  0FA1        	mov a,161
 238  0072              	fcall _i2c_write
 239  0079              #line 239 "C:\HT-3000\UC_F5660\UC_F5660_main.c"
 239  0079              	fcall _i2c_read_ACK
 239  0080  0080     E  	mov ra,a
 239  0081  1080     E  	sz ra
 239  0082  2800     R  	jmp _L31
 241  0083              #line 241 "C:\HT-3000\UC_F5660\UC_F5660_main.c"
 241  0083              	fcall _i2c_stop
 242  008A              #line 242 "C:\HT-3000\UC_F5660\UC_F5660_main.c"
 242  008A  2800     R  	jmp _L33
 242  008B              _L31:
 251  008B              #line 251 "C:\HT-3000\UC_F5660\UC_F5660_main.c"
 251  008B              	fcall _i2c_stop
 252  0092              #line 252 "C:\HT-3000\UC_F5660\UC_F5660_main.c"
 252  0092              ;# 252 "C:\HT-3000\UC_F5660\UC_F5660_main.c" 1
 252  0092              	IF 10>263690
 252  0092              ;# 252 "C:\HT-3000\UC_F5660\UC_F5660_main.c" 1
 252  0092              	ERRMESSAGE 'the value 10of the argument exceeds the maxinum 263690'
 252  0092              	ENDIF
 252  0092              ;# 252 "C:\HT-3000\UC_F5660\UC_F5660_main.c" 1
 252  0092              	IF 10<0
 252  0092              ;# 252 "C:\HT-3000\UC_F5660\UC_F5660_main.c" 1
 252  0092              	ERRMESSAGE 'the value 10 of the argument exceeds the mininum 0'
 252  0092              	ENDIF
 252  0092              ;# 252 "C:\HT-3000\UC_F5660\UC_F5660_main.c" 1
 252  0092              	IF 10==0
 252  0092              ;# 252 "C:\HT-3000\UC_F5660\UC_F5660_main.c" 1
 252  0092              	JMP $
 252  0092              	ENDIF
 252  0092              ;# 252 "C:\HT-3000\UC_F5660\UC_F5660_main.c" 1
 252  0092              	IF (10>=1) AND (10<( 4 + __PBP__ * 2))
 252  0092              ;# 252 "C:\HT-3000\UC_F5660\UC_F5660_main.c" 1
 252  0092              	NOP
 252  0092              	ENDIF
 252  0092              ;# 252 "C:\HT-3000\UC_F5660\UC_F5660_main.c" 1
 252  0092              	IF (10>=2) AND (10<( 4 + __PBP__ * 2))
 252  0092              ;# 252 "C:\HT-3000\UC_F5660\UC_F5660_main.c" 1
 252  0092              	NOP
 252  0092              	ENDIF
 252  0092              ;# 252 "C:\HT-3000\UC_F5660\UC_F5660_main.c" 1
 252  0092              	IF (10>=3) AND (10<( 4 + __PBP__ * 2))
 252  0092              ;# 252 "C:\HT-3000\UC_F5660\UC_F5660_main.c" 1
 252  0092              	NOP
 252  0092              	ENDIF
"File: UC_F5660_main.c  Assembler  Version HGASM0202      Page 14

 252  0092              ;# 252 "C:\HT-3000\UC_F5660\UC_F5660_main.c" 1
 252  0092              	IF (10>=4) AND (10<( 4 + __PBP__ * 2)) AND ( __PBP__ > 0 )
 252  0092              ;# 252 "C:\HT-3000\UC_F5660\UC_F5660_main.c" 1
 252  0092              	NOP
 252  0092              	ENDIF
 252  0092              ;# 252 "C:\HT-3000\UC_F5660\UC_F5660_main.c" 1
 252  0092              	IF (10>=5) AND (10<( 4 + __PBP__ * 2)) AND ( __PBP__ > 0 )
 252  0092              ;# 252 "C:\HT-3000\UC_F5660\UC_F5660_main.c" 1
 252  0092              	NOP
 252  0092              	ENDIF
 252  0092              ;# 252 "C:\HT-3000\UC_F5660\UC_F5660_main.c" 1
 252  0092              	IF (10>=6) AND (10<( 4 + __PBP__ * 2))  AND ( __PBP__ > 1 )
 252  0092              ;# 252 "C:\HT-3000\UC_F5660\UC_F5660_main.c" 1
 252  0092              	NOP
 252  0092              	ENDIF
 252  0092              ;# 252 "C:\HT-3000\UC_F5660\UC_F5660_main.c" 1
 252  0092              	IF (10>=7) AND (10<( 4 + __PBP__ * 2))  AND ( __PBP__ > 1 )
 252  0092              ;# 252 "C:\HT-3000\UC_F5660\UC_F5660_main.c" 1
 252  0092              	NOP
 252  0092              	ENDIF
 252  0092              ;# 252 "C:\HT-3000\UC_F5660\UC_F5660_main.c" 1
 252  0092              	IF (10>=8) AND (10<( 4 + __PBP__ * 2))  AND ( __PBP__ > 2 )
 252  0092              ;# 252 "C:\HT-3000\UC_F5660\UC_F5660_main.c" 1
 252  0092              	NOP
 252  0092              	ENDIF
 252  0092              ;# 252 "C:\HT-3000\UC_F5660\UC_F5660_main.c" 1
 252  0092              	IF (10==9)  AND ( __PBP__ > 2 )
 252  0092              ;# 252 "C:\HT-3000\UC_F5660\UC_F5660_main.c" 1
 252  0092              	NOP
 252  0092              	ENDIF
 252  0092              ;# 252 "C:\HT-3000\UC_F5660\UC_F5660_main.c" 1
 252  0092              	IF (10< ( 8 + __PBP__ * 2)) AND (10>( 3 + __PBP__ * 2))
 252  0092              ;# 252 "C:\HT-3000\UC_F5660\UC_F5660_main.c" 1
 252  0092              	fcall __DELAY3 + ( 7 + __PBP__ * 2) -10
 252  0092              	ENDIF
 252  0092              ;# 252 "C:\HT-3000\UC_F5660\UC_F5660_main.c" 1
 252  0092              	IF (10< ( 0404h + __PBP__ * 2)) AND (10>( 7 + __PBP__ * 2))
 252  0092              ;# 252 "C:\HT-3000\UC_F5660\UC_F5660_main.c" 1
 252  0092  0F01        	MOV A,(10-( 4 + __PBP__ * 2))/4
 252  0093              ;# 252 "C:\HT-3000\UC_F5660\UC_F5660_main.c" 1
 252  0093              	fcall __DELAYX3 + 3 -((10-( 4 + __PBP__ * 2)) MOD 4) 
 252  009A              	ENDIF
 252  009A              ;# 252 "C:\HT-3000\UC_F5660\UC_F5660_main.c" 1
 252  009A              	IF (10< ( 040bh + __PBP__ * 2)) AND (10> ( 0403h + __PBP__ * 2))
 252  009A              ;# 252 "C:\HT-3000\UC_F5660\UC_F5660_main.c" 1
 252  009A              	MOV A,0 
 252  009A              ;# 252 "C:\HT-3000\UC_F5660\UC_F5660_main.c" 1
 252  009A              	fcall __DELAYX6 + ( 040ah + __PBP__ * 2) -10
 252  009A              	ENDIF
 252  009A              ;# 252 "C:\HT-3000\UC_F5660\UC_F5660_main.c" 1
 252  009A              	IF (10 >= ( 040bh + __PBP__ * 2)) AND ((((10-( 9 + __PBP__ * 2))%0402h)/4+1)>256)
 252  009A              ;# 252 "C:\HT-3000\UC_F5660\UC_F5660_main.c" 1
 252  009A              	MOV A,(10-( 9 + __PBP__ * 2))/0402h
 252  009A              ;# 252 "C:\HT-3000\UC_F5660\UC_F5660_main.c" 1
 252  009A              	MOV _builtin_holtek_delay_2,A
 252  009A              ;# 252 "C:\HT-3000\UC_F5660\UC_F5660_main.c" 1
 252  009A              	MOV A,0
 252  009A              ;# 252 "C:\HT-3000\UC_F5660\UC_F5660_main.c" 1
 252  009A              	fcall __DELAYY5 +5- (((10-( 9 + __PBP__ * 2))%0402h)%6) 
 252  009A              	ENDIF
"File: UC_F5660_main.c  Assembler  Version HGASM0202      Page 15

 252  009A              ;# 252 "C:\HT-3000\UC_F5660\UC_F5660_main.c" 1
 252  009A              	IF (10 >= ( 040bh + __PBP__ * 2)) AND ((((10-( 9 + __PBP__ * 2))%0402h)/4+1)<=256)
 252  009A              ;# 252 "C:\HT-3000\UC_F5660\UC_F5660_main.c" 1
 252  009A              	MOV A,(10-( 9 + __PBP__ * 2))/0402h
 252  009A              ;# 252 "C:\HT-3000\UC_F5660\UC_F5660_main.c" 1
 252  009A              	MOV _builtin_holtek_delay_2,A
 252  009A              ;# 252 "C:\HT-3000\UC_F5660\UC_F5660_main.c" 1
 252  009A              	MOV A,((10-( 9 + __PBP__ * 2))%0402h)/4+1
 252  009A              ;# 252 "C:\HT-3000\UC_F5660\UC_F5660_main.c" 1
 252  009A              	fcall __DELAYY3 +3-(((10-( 9 + __PBP__ * 2))%0402h)%4) 
 252  009A              	ENDIF
 252  009A  1580     R  	dec _init_HT16K33_2[0]
 230  009B              #line 230 "C:\HT-3000\UC_F5660\UC_F5660_main.c"
 230  009B  1600     R  	siza _init_HT16K33_2[0]
 230  009C  2800     R  	jmp _L35
 230  009D              _L33:
 258  009D              #line 258 "C:\HT-3000\UC_F5660\UC_F5660_main.c"
 258  009D              ;# 258 "C:\HT-3000\UC_F5660\UC_F5660_main.c" 1
 258  009D              	IF 10>263690
 258  009D              ;# 258 "C:\HT-3000\UC_F5660\UC_F5660_main.c" 1
 258  009D              	ERRMESSAGE 'the value 10of the argument exceeds the maxinum 263690'
 258  009D              	ENDIF
 258  009D              ;# 258 "C:\HT-3000\UC_F5660\UC_F5660_main.c" 1
 258  009D              	IF 10<0
 258  009D              ;# 258 "C:\HT-3000\UC_F5660\UC_F5660_main.c" 1
 258  009D              	ERRMESSAGE 'the value 10 of the argument exceeds the mininum 0'
 258  009D              	ENDIF
 258  009D              ;# 258 "C:\HT-3000\UC_F5660\UC_F5660_main.c" 1
 258  009D              	IF 10==0
 258  009D              ;# 258 "C:\HT-3000\UC_F5660\UC_F5660_main.c" 1
 258  009D              	JMP $
 258  009D              	ENDIF
 258  009D              ;# 258 "C:\HT-3000\UC_F5660\UC_F5660_main.c" 1
 258  009D              	IF (10>=1) AND (10<( 4 + __PBP__ * 2))
 258  009D              ;# 258 "C:\HT-3000\UC_F5660\UC_F5660_main.c" 1
 258  009D              	NOP
 258  009D              	ENDIF
 258  009D              ;# 258 "C:\HT-3000\UC_F5660\UC_F5660_main.c" 1
 258  009D              	IF (10>=2) AND (10<( 4 + __PBP__ * 2))
 258  009D              ;# 258 "C:\HT-3000\UC_F5660\UC_F5660_main.c" 1
 258  009D              	NOP
 258  009D              	ENDIF
 258  009D              ;# 258 "C:\HT-3000\UC_F5660\UC_F5660_main.c" 1
 258  009D              	IF (10>=3) AND (10<( 4 + __PBP__ * 2))
 258  009D              ;# 258 "C:\HT-3000\UC_F5660\UC_F5660_main.c" 1
 258  009D              	NOP
 258  009D              	ENDIF
 258  009D              ;# 258 "C:\HT-3000\UC_F5660\UC_F5660_main.c" 1
 258  009D              	IF (10>=4) AND (10<( 4 + __PBP__ * 2)) AND ( __PBP__ > 0 )
 258  009D              ;# 258 "C:\HT-3000\UC_F5660\UC_F5660_main.c" 1
 258  009D              	NOP
 258  009D              	ENDIF
 258  009D              ;# 258 "C:\HT-3000\UC_F5660\UC_F5660_main.c" 1
 258  009D              	IF (10>=5) AND (10<( 4 + __PBP__ * 2)) AND ( __PBP__ > 0 )
 258  009D              ;# 258 "C:\HT-3000\UC_F5660\UC_F5660_main.c" 1
 258  009D              	NOP
 258  009D              	ENDIF
 258  009D              ;# 258 "C:\HT-3000\UC_F5660\UC_F5660_main.c" 1
 258  009D              	IF (10>=6) AND (10<( 4 + __PBP__ * 2))  AND ( __PBP__ > 1 )
 258  009D              ;# 258 "C:\HT-3000\UC_F5660\UC_F5660_main.c" 1
"File: UC_F5660_main.c  Assembler  Version HGASM0202      Page 16

 258  009D              	NOP
 258  009D              	ENDIF
 258  009D              ;# 258 "C:\HT-3000\UC_F5660\UC_F5660_main.c" 1
 258  009D              	IF (10>=7) AND (10<( 4 + __PBP__ * 2))  AND ( __PBP__ > 1 )
 258  009D              ;# 258 "C:\HT-3000\UC_F5660\UC_F5660_main.c" 1
 258  009D              	NOP
 258  009D              	ENDIF
 258  009D              ;# 258 "C:\HT-3000\UC_F5660\UC_F5660_main.c" 1
 258  009D              	IF (10>=8) AND (10<( 4 + __PBP__ * 2))  AND ( __PBP__ > 2 )
 258  009D              ;# 258 "C:\HT-3000\UC_F5660\UC_F5660_main.c" 1
 258  009D              	NOP
 258  009D              	ENDIF
 258  009D              ;# 258 "C:\HT-3000\UC_F5660\UC_F5660_main.c" 1
 258  009D              	IF (10==9)  AND ( __PBP__ > 2 )
 258  009D              ;# 258 "C:\HT-3000\UC_F5660\UC_F5660_main.c" 1
 258  009D              	NOP
 258  009D              	ENDIF
 258  009D              ;# 258 "C:\HT-3000\UC_F5660\UC_F5660_main.c" 1
 258  009D              	IF (10< ( 8 + __PBP__ * 2)) AND (10>( 3 + __PBP__ * 2))
 258  009D              ;# 258 "C:\HT-3000\UC_F5660\UC_F5660_main.c" 1
 258  009D              	fcall __DELAY3 + ( 7 + __PBP__ * 2) -10
 258  009D              	ENDIF
 258  009D              ;# 258 "C:\HT-3000\UC_F5660\UC_F5660_main.c" 1
 258  009D              	IF (10< ( 0404h + __PBP__ * 2)) AND (10>( 7 + __PBP__ * 2))
 258  009D              ;# 258 "C:\HT-3000\UC_F5660\UC_F5660_main.c" 1
 258  009D  0F01        	MOV A,(10-( 4 + __PBP__ * 2))/4
 258  009E              ;# 258 "C:\HT-3000\UC_F5660\UC_F5660_main.c" 1
 258  009E              	fcall __DELAYX3 + 3 -((10-( 4 + __PBP__ * 2)) MOD 4) 
 258  00A5              	ENDIF
 258  00A5              ;# 258 "C:\HT-3000\UC_F5660\UC_F5660_main.c" 1
 258  00A5              	IF (10< ( 040bh + __PBP__ * 2)) AND (10> ( 0403h + __PBP__ * 2))
 258  00A5              ;# 258 "C:\HT-3000\UC_F5660\UC_F5660_main.c" 1
 258  00A5              	MOV A,0 
 258  00A5              ;# 258 "C:\HT-3000\UC_F5660\UC_F5660_main.c" 1
 258  00A5              	fcall __DELAYX6 + ( 040ah + __PBP__ * 2) -10
 258  00A5              	ENDIF
 258  00A5              ;# 258 "C:\HT-3000\UC_F5660\UC_F5660_main.c" 1
 258  00A5              	IF (10 >= ( 040bh + __PBP__ * 2)) AND ((((10-( 9 + __PBP__ * 2))%0402h)/4+1)>256)
 258  00A5              ;# 258 "C:\HT-3000\UC_F5660\UC_F5660_main.c" 1
 258  00A5              	MOV A,(10-( 9 + __PBP__ * 2))/0402h
 258  00A5              ;# 258 "C:\HT-3000\UC_F5660\UC_F5660_main.c" 1
 258  00A5              	MOV _builtin_holtek_delay_2,A
 258  00A5              ;# 258 "C:\HT-3000\UC_F5660\UC_F5660_main.c" 1
 258  00A5              	MOV A,0
 258  00A5              ;# 258 "C:\HT-3000\UC_F5660\UC_F5660_main.c" 1
 258  00A5              	fcall __DELAYY5 +5- (((10-( 9 + __PBP__ * 2))%0402h)%6) 
 258  00A5              	ENDIF
 258  00A5              ;# 258 "C:\HT-3000\UC_F5660\UC_F5660_main.c" 1
 258  00A5              	IF (10 >= ( 040bh + __PBP__ * 2)) AND ((((10-( 9 + __PBP__ * 2))%0402h)/4+1)<=256)
 258  00A5              ;# 258 "C:\HT-3000\UC_F5660\UC_F5660_main.c" 1
 258  00A5              	MOV A,(10-( 9 + __PBP__ * 2))/0402h
 258  00A5              ;# 258 "C:\HT-3000\UC_F5660\UC_F5660_main.c" 1
 258  00A5              	MOV _builtin_holtek_delay_2,A
 258  00A5              ;# 258 "C:\HT-3000\UC_F5660\UC_F5660_main.c" 1
 258  00A5              	MOV A,((10-( 9 + __PBP__ * 2))%0402h)/4+1
 258  00A5              ;# 258 "C:\HT-3000\UC_F5660\UC_F5660_main.c" 1
 258  00A5              	fcall __DELAYY3 +3-(((10-( 9 + __PBP__ * 2))%0402h)%4) 
 258  00A5              	ENDIF
 258  00A5  0F04        	mov a,4
 258  00A6  0080     R  	mov _init_HT16K33_2[0],a
"File: UC_F5660_main.c  Assembler  Version HGASM0202      Page 17

 258  00A7              _L40:
 266  00A7              #line 266 "C:\HT-3000\UC_F5660\UC_F5660_main.c"
 266  00A7              	fcall _i2c_start
 267  00AE              #line 267 "C:\HT-3000\UC_F5660\UC_F5660_main.c"
 267  00AE  0FE0        	mov a,224
 267  00AF              	fcall _i2c_write
 268  00B6              #line 268 "C:\HT-3000\UC_F5660\UC_F5660_main.c"
 268  00B6              	fcall _i2c_read_ACK
 268  00BD  0080     E  	mov ra,a
 268  00BE  1080     E  	sz ra
 268  00BF  2800     R  	jmp _L36
 271  00C0              #line 271 "C:\HT-3000\UC_F5660\UC_F5660_main.c"
 271  00C0  0FEF        	mov a,239
 271  00C1              	fcall _i2c_write
 272  00C8              #line 272 "C:\HT-3000\UC_F5660\UC_F5660_main.c"
 272  00C8              	fcall _i2c_read_ACK
 272  00CF  0080     E  	mov ra,a
 272  00D0  1080     E  	sz ra
 272  00D1  2800     R  	jmp _L36
 274  00D2              #line 274 "C:\HT-3000\UC_F5660\UC_F5660_main.c"
 274  00D2              	fcall _i2c_stop
 275  00D9              #line 275 "C:\HT-3000\UC_F5660\UC_F5660_main.c"
 275  00D9  2800     R  	jmp _L38
 275  00DA              _L36:
 284  00DA              #line 284 "C:\HT-3000\UC_F5660\UC_F5660_main.c"
 284  00DA              	fcall _i2c_stop
 285  00E1              #line 285 "C:\HT-3000\UC_F5660\UC_F5660_main.c"
 285  00E1              ;# 285 "C:\HT-3000\UC_F5660\UC_F5660_main.c" 1
 285  00E1              	IF 10>263690
 285  00E1              ;# 285 "C:\HT-3000\UC_F5660\UC_F5660_main.c" 1
 285  00E1              	ERRMESSAGE 'the value 10of the argument exceeds the maxinum 263690'
 285  00E1              	ENDIF
 285  00E1              ;# 285 "C:\HT-3000\UC_F5660\UC_F5660_main.c" 1
 285  00E1              	IF 10<0
 285  00E1              ;# 285 "C:\HT-3000\UC_F5660\UC_F5660_main.c" 1
 285  00E1              	ERRMESSAGE 'the value 10 of the argument exceeds the mininum 0'
 285  00E1              	ENDIF
 285  00E1              ;# 285 "C:\HT-3000\UC_F5660\UC_F5660_main.c" 1
 285  00E1              	IF 10==0
 285  00E1              ;# 285 "C:\HT-3000\UC_F5660\UC_F5660_main.c" 1
 285  00E1              	JMP $
 285  00E1              	ENDIF
 285  00E1              ;# 285 "C:\HT-3000\UC_F5660\UC_F5660_main.c" 1
 285  00E1              	IF (10>=1) AND (10<( 4 + __PBP__ * 2))
 285  00E1              ;# 285 "C:\HT-3000\UC_F5660\UC_F5660_main.c" 1
 285  00E1              	NOP
 285  00E1              	ENDIF
 285  00E1              ;# 285 "C:\HT-3000\UC_F5660\UC_F5660_main.c" 1
 285  00E1              	IF (10>=2) AND (10<( 4 + __PBP__ * 2))
 285  00E1              ;# 285 "C:\HT-3000\UC_F5660\UC_F5660_main.c" 1
 285  00E1              	NOP
 285  00E1              	ENDIF
 285  00E1              ;# 285 "C:\HT-3000\UC_F5660\UC_F5660_main.c" 1
 285  00E1              	IF (10>=3) AND (10<( 4 + __PBP__ * 2))
 285  00E1              ;# 285 "C:\HT-3000\UC_F5660\UC_F5660_main.c" 1
 285  00E1              	NOP
 285  00E1              	ENDIF
 285  00E1              ;# 285 "C:\HT-3000\UC_F5660\UC_F5660_main.c" 1
 285  00E1              	IF (10>=4) AND (10<( 4 + __PBP__ * 2)) AND ( __PBP__ > 0 )
 285  00E1              ;# 285 "C:\HT-3000\UC_F5660\UC_F5660_main.c" 1
"File: UC_F5660_main.c  Assembler  Version HGASM0202      Page 18

 285  00E1              	NOP
 285  00E1              	ENDIF
 285  00E1              ;# 285 "C:\HT-3000\UC_F5660\UC_F5660_main.c" 1
 285  00E1              	IF (10>=5) AND (10<( 4 + __PBP__ * 2)) AND ( __PBP__ > 0 )
 285  00E1              ;# 285 "C:\HT-3000\UC_F5660\UC_F5660_main.c" 1
 285  00E1              	NOP
 285  00E1              	ENDIF
 285  00E1              ;# 285 "C:\HT-3000\UC_F5660\UC_F5660_main.c" 1
 285  00E1              	IF (10>=6) AND (10<( 4 + __PBP__ * 2))  AND ( __PBP__ > 1 )
 285  00E1              ;# 285 "C:\HT-3000\UC_F5660\UC_F5660_main.c" 1
 285  00E1              	NOP
 285  00E1              	ENDIF
 285  00E1              ;# 285 "C:\HT-3000\UC_F5660\UC_F5660_main.c" 1
 285  00E1              	IF (10>=7) AND (10<( 4 + __PBP__ * 2))  AND ( __PBP__ > 1 )
 285  00E1              ;# 285 "C:\HT-3000\UC_F5660\UC_F5660_main.c" 1
 285  00E1              	NOP
 285  00E1              	ENDIF
 285  00E1              ;# 285 "C:\HT-3000\UC_F5660\UC_F5660_main.c" 1
 285  00E1              	IF (10>=8) AND (10<( 4 + __PBP__ * 2))  AND ( __PBP__ > 2 )
 285  00E1              ;# 285 "C:\HT-3000\UC_F5660\UC_F5660_main.c" 1
 285  00E1              	NOP
 285  00E1              	ENDIF
 285  00E1              ;# 285 "C:\HT-3000\UC_F5660\UC_F5660_main.c" 1
 285  00E1              	IF (10==9)  AND ( __PBP__ > 2 )
 285  00E1              ;# 285 "C:\HT-3000\UC_F5660\UC_F5660_main.c" 1
 285  00E1              	NOP
 285  00E1              	ENDIF
 285  00E1              ;# 285 "C:\HT-3000\UC_F5660\UC_F5660_main.c" 1
 285  00E1              	IF (10< ( 8 + __PBP__ * 2)) AND (10>( 3 + __PBP__ * 2))
 285  00E1              ;# 285 "C:\HT-3000\UC_F5660\UC_F5660_main.c" 1
 285  00E1              	fcall __DELAY3 + ( 7 + __PBP__ * 2) -10
 285  00E1              	ENDIF
 285  00E1              ;# 285 "C:\HT-3000\UC_F5660\UC_F5660_main.c" 1
 285  00E1              	IF (10< ( 0404h + __PBP__ * 2)) AND (10>( 7 + __PBP__ * 2))
 285  00E1              ;# 285 "C:\HT-3000\UC_F5660\UC_F5660_main.c" 1
 285  00E1  0F01        	MOV A,(10-( 4 + __PBP__ * 2))/4
 285  00E2              ;# 285 "C:\HT-3000\UC_F5660\UC_F5660_main.c" 1
 285  00E2              	fcall __DELAYX3 + 3 -((10-( 4 + __PBP__ * 2)) MOD 4) 
 285  00E9              	ENDIF
 285  00E9              ;# 285 "C:\HT-3000\UC_F5660\UC_F5660_main.c" 1
 285  00E9              	IF (10< ( 040bh + __PBP__ * 2)) AND (10> ( 0403h + __PBP__ * 2))
 285  00E9              ;# 285 "C:\HT-3000\UC_F5660\UC_F5660_main.c" 1
 285  00E9              	MOV A,0 
 285  00E9              ;# 285 "C:\HT-3000\UC_F5660\UC_F5660_main.c" 1
 285  00E9              	fcall __DELAYX6 + ( 040ah + __PBP__ * 2) -10
 285  00E9              	ENDIF
 285  00E9              ;# 285 "C:\HT-3000\UC_F5660\UC_F5660_main.c" 1
 285  00E9              	IF (10 >= ( 040bh + __PBP__ * 2)) AND ((((10-( 9 + __PBP__ * 2))%0402h)/4+1)>256)
 285  00E9              ;# 285 "C:\HT-3000\UC_F5660\UC_F5660_main.c" 1
 285  00E9              	MOV A,(10-( 9 + __PBP__ * 2))/0402h
 285  00E9              ;# 285 "C:\HT-3000\UC_F5660\UC_F5660_main.c" 1
 285  00E9              	MOV _builtin_holtek_delay_2,A
 285  00E9              ;# 285 "C:\HT-3000\UC_F5660\UC_F5660_main.c" 1
 285  00E9              	MOV A,0
 285  00E9              ;# 285 "C:\HT-3000\UC_F5660\UC_F5660_main.c" 1
 285  00E9              	fcall __DELAYY5 +5- (((10-( 9 + __PBP__ * 2))%0402h)%6) 
 285  00E9              	ENDIF
 285  00E9              ;# 285 "C:\HT-3000\UC_F5660\UC_F5660_main.c" 1
 285  00E9              	IF (10 >= ( 040bh + __PBP__ * 2)) AND ((((10-( 9 + __PBP__ * 2))%0402h)/4+1)<=256)
 285  00E9              ;# 285 "C:\HT-3000\UC_F5660\UC_F5660_main.c" 1
"File: UC_F5660_main.c  Assembler  Version HGASM0202      Page 19

 285  00E9              	MOV A,(10-( 9 + __PBP__ * 2))/0402h
 285  00E9              ;# 285 "C:\HT-3000\UC_F5660\UC_F5660_main.c" 1
 285  00E9              	MOV _builtin_holtek_delay_2,A
 285  00E9              ;# 285 "C:\HT-3000\UC_F5660\UC_F5660_main.c" 1
 285  00E9              	MOV A,((10-( 9 + __PBP__ * 2))%0402h)/4+1
 285  00E9              ;# 285 "C:\HT-3000\UC_F5660\UC_F5660_main.c" 1
 285  00E9              	fcall __DELAYY3 +3-(((10-( 9 + __PBP__ * 2))%0402h)%4) 
 285  00E9              	ENDIF
 285  00E9  1580     R  	dec _init_HT16K33_2[0]
 263  00EA              #line 263 "C:\HT-3000\UC_F5660\UC_F5660_main.c"
 263  00EA  1600     R  	siza _init_HT16K33_2[0]
 263  00EB  2800     R  	jmp _L40
 263  00EC              _L38:
 291  00EC              #line 291 "C:\HT-3000\UC_F5660\UC_F5660_main.c"
 291  00EC              ;# 291 "C:\HT-3000\UC_F5660\UC_F5660_main.c" 1
 291  00EC              	IF 10>263690
 291  00EC              ;# 291 "C:\HT-3000\UC_F5660\UC_F5660_main.c" 1
 291  00EC              	ERRMESSAGE 'the value 10of the argument exceeds the maxinum 263690'
 291  00EC              	ENDIF
 291  00EC              ;# 291 "C:\HT-3000\UC_F5660\UC_F5660_main.c" 1
 291  00EC              	IF 10<0
 291  00EC              ;# 291 "C:\HT-3000\UC_F5660\UC_F5660_main.c" 1
 291  00EC              	ERRMESSAGE 'the value 10 of the argument exceeds the mininum 0'
 291  00EC              	ENDIF
 291  00EC              ;# 291 "C:\HT-3000\UC_F5660\UC_F5660_main.c" 1
 291  00EC              	IF 10==0
 291  00EC              ;# 291 "C:\HT-3000\UC_F5660\UC_F5660_main.c" 1
 291  00EC              	JMP $
 291  00EC              	ENDIF
 291  00EC              ;# 291 "C:\HT-3000\UC_F5660\UC_F5660_main.c" 1
 291  00EC              	IF (10>=1) AND (10<( 4 + __PBP__ * 2))
 291  00EC              ;# 291 "C:\HT-3000\UC_F5660\UC_F5660_main.c" 1
 291  00EC              	NOP
 291  00EC              	ENDIF
 291  00EC              ;# 291 "C:\HT-3000\UC_F5660\UC_F5660_main.c" 1
 291  00EC              	IF (10>=2) AND (10<( 4 + __PBP__ * 2))
 291  00EC              ;# 291 "C:\HT-3000\UC_F5660\UC_F5660_main.c" 1
 291  00EC              	NOP
 291  00EC              	ENDIF
 291  00EC              ;# 291 "C:\HT-3000\UC_F5660\UC_F5660_main.c" 1
 291  00EC              	IF (10>=3) AND (10<( 4 + __PBP__ * 2))
 291  00EC              ;# 291 "C:\HT-3000\UC_F5660\UC_F5660_main.c" 1
 291  00EC              	NOP
 291  00EC              	ENDIF
 291  00EC              ;# 291 "C:\HT-3000\UC_F5660\UC_F5660_main.c" 1
 291  00EC              	IF (10>=4) AND (10<( 4 + __PBP__ * 2)) AND ( __PBP__ > 0 )
 291  00EC              ;# 291 "C:\HT-3000\UC_F5660\UC_F5660_main.c" 1
 291  00EC              	NOP
 291  00EC              	ENDIF
 291  00EC              ;# 291 "C:\HT-3000\UC_F5660\UC_F5660_main.c" 1
 291  00EC              	IF (10>=5) AND (10<( 4 + __PBP__ * 2)) AND ( __PBP__ > 0 )
 291  00EC              ;# 291 "C:\HT-3000\UC_F5660\UC_F5660_main.c" 1
 291  00EC              	NOP
 291  00EC              	ENDIF
 291  00EC              ;# 291 "C:\HT-3000\UC_F5660\UC_F5660_main.c" 1
 291  00EC              	IF (10>=6) AND (10<( 4 + __PBP__ * 2))  AND ( __PBP__ > 1 )
 291  00EC              ;# 291 "C:\HT-3000\UC_F5660\UC_F5660_main.c" 1
 291  00EC              	NOP
 291  00EC              	ENDIF
 291  00EC              ;# 291 "C:\HT-3000\UC_F5660\UC_F5660_main.c" 1
"File: UC_F5660_main.c  Assembler  Version HGASM0202      Page 20

 291  00EC              	IF (10>=7) AND (10<( 4 + __PBP__ * 2))  AND ( __PBP__ > 1 )
 291  00EC              ;# 291 "C:\HT-3000\UC_F5660\UC_F5660_main.c" 1
 291  00EC              	NOP
 291  00EC              	ENDIF
 291  00EC              ;# 291 "C:\HT-3000\UC_F5660\UC_F5660_main.c" 1
 291  00EC              	IF (10>=8) AND (10<( 4 + __PBP__ * 2))  AND ( __PBP__ > 2 )
 291  00EC              ;# 291 "C:\HT-3000\UC_F5660\UC_F5660_main.c" 1
 291  00EC              	NOP
 291  00EC              	ENDIF
 291  00EC              ;# 291 "C:\HT-3000\UC_F5660\UC_F5660_main.c" 1
 291  00EC              	IF (10==9)  AND ( __PBP__ > 2 )
 291  00EC              ;# 291 "C:\HT-3000\UC_F5660\UC_F5660_main.c" 1
 291  00EC              	NOP
 291  00EC              	ENDIF
 291  00EC              ;# 291 "C:\HT-3000\UC_F5660\UC_F5660_main.c" 1
 291  00EC              	IF (10< ( 8 + __PBP__ * 2)) AND (10>( 3 + __PBP__ * 2))
 291  00EC              ;# 291 "C:\HT-3000\UC_F5660\UC_F5660_main.c" 1
 291  00EC              	fcall __DELAY3 + ( 7 + __PBP__ * 2) -10
 291  00EC              	ENDIF
 291  00EC              ;# 291 "C:\HT-3000\UC_F5660\UC_F5660_main.c" 1
 291  00EC              	IF (10< ( 0404h + __PBP__ * 2)) AND (10>( 7 + __PBP__ * 2))
 291  00EC              ;# 291 "C:\HT-3000\UC_F5660\UC_F5660_main.c" 1
 291  00EC  0F01        	MOV A,(10-( 4 + __PBP__ * 2))/4
 291  00ED              ;# 291 "C:\HT-3000\UC_F5660\UC_F5660_main.c" 1
 291  00ED              	fcall __DELAYX3 + 3 -((10-( 4 + __PBP__ * 2)) MOD 4) 
 291  00F4              	ENDIF
 291  00F4              ;# 291 "C:\HT-3000\UC_F5660\UC_F5660_main.c" 1
 291  00F4              	IF (10< ( 040bh + __PBP__ * 2)) AND (10> ( 0403h + __PBP__ * 2))
 291  00F4              ;# 291 "C:\HT-3000\UC_F5660\UC_F5660_main.c" 1
 291  00F4              	MOV A,0 
 291  00F4              ;# 291 "C:\HT-3000\UC_F5660\UC_F5660_main.c" 1
 291  00F4              	fcall __DELAYX6 + ( 040ah + __PBP__ * 2) -10
 291  00F4              	ENDIF
 291  00F4              ;# 291 "C:\HT-3000\UC_F5660\UC_F5660_main.c" 1
 291  00F4              	IF (10 >= ( 040bh + __PBP__ * 2)) AND ((((10-( 9 + __PBP__ * 2))%0402h)/4+1)>256)
 291  00F4              ;# 291 "C:\HT-3000\UC_F5660\UC_F5660_main.c" 1
 291  00F4              	MOV A,(10-( 9 + __PBP__ * 2))/0402h
 291  00F4              ;# 291 "C:\HT-3000\UC_F5660\UC_F5660_main.c" 1
 291  00F4              	MOV _builtin_holtek_delay_2,A
 291  00F4              ;# 291 "C:\HT-3000\UC_F5660\UC_F5660_main.c" 1
 291  00F4              	MOV A,0
 291  00F4              ;# 291 "C:\HT-3000\UC_F5660\UC_F5660_main.c" 1
 291  00F4              	fcall __DELAYY5 +5- (((10-( 9 + __PBP__ * 2))%0402h)%6) 
 291  00F4              	ENDIF
 291  00F4              ;# 291 "C:\HT-3000\UC_F5660\UC_F5660_main.c" 1
 291  00F4              	IF (10 >= ( 040bh + __PBP__ * 2)) AND ((((10-( 9 + __PBP__ * 2))%0402h)/4+1)<=256)
 291  00F4              ;# 291 "C:\HT-3000\UC_F5660\UC_F5660_main.c" 1
 291  00F4              	MOV A,(10-( 9 + __PBP__ * 2))/0402h
 291  00F4              ;# 291 "C:\HT-3000\UC_F5660\UC_F5660_main.c" 1
 291  00F4              	MOV _builtin_holtek_delay_2,A
 291  00F4              ;# 291 "C:\HT-3000\UC_F5660\UC_F5660_main.c" 1
 291  00F4              	MOV A,((10-( 9 + __PBP__ * 2))%0402h)/4+1
 291  00F4              ;# 291 "C:\HT-3000\UC_F5660\UC_F5660_main.c" 1
 291  00F4              	fcall __DELAYY3 +3-(((10-( 9 + __PBP__ * 2))%0402h)%4) 
 291  00F4              	ENDIF
 291  00F4  0F04        	mov a,4
 291  00F5  0080     R  	mov _init_HT16K33_2[0],a
 291  00F6              _L45:
 298  00F6              #line 298 "C:\HT-3000\UC_F5660\UC_F5660_main.c"
 298  00F6              	fcall _i2c_start
"File: UC_F5660_main.c  Assembler  Version HGASM0202      Page 21

 299  00FD              #line 299 "C:\HT-3000\UC_F5660\UC_F5660_main.c"
 299  00FD  0FE0        	mov a,224
 299  00FE              	fcall _i2c_write
 300  0105              #line 300 "C:\HT-3000\UC_F5660\UC_F5660_main.c"
 300  0105              	fcall _i2c_read_ACK
 300  010C  0080     E  	mov ra,a
 300  010D  1080     E  	sz ra
 300  010E  2800     R  	jmp _L41
 303  010F              #line 303 "C:\HT-3000\UC_F5660\UC_F5660_main.c"
 303  010F  0F81        	mov a,129
 303  0110              	fcall _i2c_write
 304  0117              #line 304 "C:\HT-3000\UC_F5660\UC_F5660_main.c"
 304  0117              	fcall _i2c_read_ACK
 304  011E  0080     E  	mov ra,a
 304  011F  1080     E  	sz ra
 304  0120  2800     R  	jmp _L41
 306  0121              #line 306 "C:\HT-3000\UC_F5660\UC_F5660_main.c"
 306  0121              	fcall _i2c_stop
 307  0128              #line 307 "C:\HT-3000\UC_F5660\UC_F5660_main.c"
 307  0128  2800     R  	jmp _L43
 307  0129              _L41:
 316  0129              #line 316 "C:\HT-3000\UC_F5660\UC_F5660_main.c"
 316  0129              	fcall _i2c_stop
 317  0130              #line 317 "C:\HT-3000\UC_F5660\UC_F5660_main.c"
 317  0130              ;# 317 "C:\HT-3000\UC_F5660\UC_F5660_main.c" 1
 317  0130              	IF 10>263690
 317  0130              ;# 317 "C:\HT-3000\UC_F5660\UC_F5660_main.c" 1
 317  0130              	ERRMESSAGE 'the value 10of the argument exceeds the maxinum 263690'
 317  0130              	ENDIF
 317  0130              ;# 317 "C:\HT-3000\UC_F5660\UC_F5660_main.c" 1
 317  0130              	IF 10<0
 317  0130              ;# 317 "C:\HT-3000\UC_F5660\UC_F5660_main.c" 1
 317  0130              	ERRMESSAGE 'the value 10 of the argument exceeds the mininum 0'
 317  0130              	ENDIF
 317  0130              ;# 317 "C:\HT-3000\UC_F5660\UC_F5660_main.c" 1
 317  0130              	IF 10==0
 317  0130              ;# 317 "C:\HT-3000\UC_F5660\UC_F5660_main.c" 1
 317  0130              	JMP $
 317  0130              	ENDIF
 317  0130              ;# 317 "C:\HT-3000\UC_F5660\UC_F5660_main.c" 1
 317  0130              	IF (10>=1) AND (10<( 4 + __PBP__ * 2))
 317  0130              ;# 317 "C:\HT-3000\UC_F5660\UC_F5660_main.c" 1
 317  0130              	NOP
 317  0130              	ENDIF
 317  0130              ;# 317 "C:\HT-3000\UC_F5660\UC_F5660_main.c" 1
 317  0130              	IF (10>=2) AND (10<( 4 + __PBP__ * 2))
 317  0130              ;# 317 "C:\HT-3000\UC_F5660\UC_F5660_main.c" 1
 317  0130              	NOP
 317  0130              	ENDIF
 317  0130              ;# 317 "C:\HT-3000\UC_F5660\UC_F5660_main.c" 1
 317  0130              	IF (10>=3) AND (10<( 4 + __PBP__ * 2))
 317  0130              ;# 317 "C:\HT-3000\UC_F5660\UC_F5660_main.c" 1
 317  0130              	NOP
 317  0130              	ENDIF
 317  0130              ;# 317 "C:\HT-3000\UC_F5660\UC_F5660_main.c" 1
 317  0130              	IF (10>=4) AND (10<( 4 + __PBP__ * 2)) AND ( __PBP__ > 0 )
 317  0130              ;# 317 "C:\HT-3000\UC_F5660\UC_F5660_main.c" 1
 317  0130              	NOP
 317  0130              	ENDIF
 317  0130              ;# 317 "C:\HT-3000\UC_F5660\UC_F5660_main.c" 1
"File: UC_F5660_main.c  Assembler  Version HGASM0202      Page 22

 317  0130              	IF (10>=5) AND (10<( 4 + __PBP__ * 2)) AND ( __PBP__ > 0 )
 317  0130              ;# 317 "C:\HT-3000\UC_F5660\UC_F5660_main.c" 1
 317  0130              	NOP
 317  0130              	ENDIF
 317  0130              ;# 317 "C:\HT-3000\UC_F5660\UC_F5660_main.c" 1
 317  0130              	IF (10>=6) AND (10<( 4 + __PBP__ * 2))  AND ( __PBP__ > 1 )
 317  0130              ;# 317 "C:\HT-3000\UC_F5660\UC_F5660_main.c" 1
 317  0130              	NOP
 317  0130              	ENDIF
 317  0130              ;# 317 "C:\HT-3000\UC_F5660\UC_F5660_main.c" 1
 317  0130              	IF (10>=7) AND (10<( 4 + __PBP__ * 2))  AND ( __PBP__ > 1 )
 317  0130              ;# 317 "C:\HT-3000\UC_F5660\UC_F5660_main.c" 1
 317  0130              	NOP
 317  0130              	ENDIF
 317  0130              ;# 317 "C:\HT-3000\UC_F5660\UC_F5660_main.c" 1
 317  0130              	IF (10>=8) AND (10<( 4 + __PBP__ * 2))  AND ( __PBP__ > 2 )
 317  0130              ;# 317 "C:\HT-3000\UC_F5660\UC_F5660_main.c" 1
 317  0130              	NOP
 317  0130              	ENDIF
 317  0130              ;# 317 "C:\HT-3000\UC_F5660\UC_F5660_main.c" 1
 317  0130              	IF (10==9)  AND ( __PBP__ > 2 )
 317  0130              ;# 317 "C:\HT-3000\UC_F5660\UC_F5660_main.c" 1
 317  0130              	NOP
 317  0130              	ENDIF
 317  0130              ;# 317 "C:\HT-3000\UC_F5660\UC_F5660_main.c" 1
 317  0130              	IF (10< ( 8 + __PBP__ * 2)) AND (10>( 3 + __PBP__ * 2))
 317  0130              ;# 317 "C:\HT-3000\UC_F5660\UC_F5660_main.c" 1
 317  0130              	fcall __DELAY3 + ( 7 + __PBP__ * 2) -10
 317  0130              	ENDIF
 317  0130              ;# 317 "C:\HT-3000\UC_F5660\UC_F5660_main.c" 1
 317  0130              	IF (10< ( 0404h + __PBP__ * 2)) AND (10>( 7 + __PBP__ * 2))
 317  0130              ;# 317 "C:\HT-3000\UC_F5660\UC_F5660_main.c" 1
 317  0130  0F01        	MOV A,(10-( 4 + __PBP__ * 2))/4
 317  0131              ;# 317 "C:\HT-3000\UC_F5660\UC_F5660_main.c" 1
 317  0131              	fcall __DELAYX3 + 3 -((10-( 4 + __PBP__ * 2)) MOD 4) 
 317  0138              	ENDIF
 317  0138              ;# 317 "C:\HT-3000\UC_F5660\UC_F5660_main.c" 1
 317  0138              	IF (10< ( 040bh + __PBP__ * 2)) AND (10> ( 0403h + __PBP__ * 2))
 317  0138              ;# 317 "C:\HT-3000\UC_F5660\UC_F5660_main.c" 1
 317  0138              	MOV A,0 
 317  0138              ;# 317 "C:\HT-3000\UC_F5660\UC_F5660_main.c" 1
 317  0138              	fcall __DELAYX6 + ( 040ah + __PBP__ * 2) -10
 317  0138              	ENDIF
 317  0138              ;# 317 "C:\HT-3000\UC_F5660\UC_F5660_main.c" 1
 317  0138              	IF (10 >= ( 040bh + __PBP__ * 2)) AND ((((10-( 9 + __PBP__ * 2))%0402h)/4+1)>256)
 317  0138              ;# 317 "C:\HT-3000\UC_F5660\UC_F5660_main.c" 1
 317  0138              	MOV A,(10-( 9 + __PBP__ * 2))/0402h
 317  0138              ;# 317 "C:\HT-3000\UC_F5660\UC_F5660_main.c" 1
 317  0138              	MOV _builtin_holtek_delay_2,A
 317  0138              ;# 317 "C:\HT-3000\UC_F5660\UC_F5660_main.c" 1
 317  0138              	MOV A,0
 317  0138              ;# 317 "C:\HT-3000\UC_F5660\UC_F5660_main.c" 1
 317  0138              	fcall __DELAYY5 +5- (((10-( 9 + __PBP__ * 2))%0402h)%6) 
 317  0138              	ENDIF
 317  0138              ;# 317 "C:\HT-3000\UC_F5660\UC_F5660_main.c" 1
 317  0138              	IF (10 >= ( 040bh + __PBP__ * 2)) AND ((((10-( 9 + __PBP__ * 2))%0402h)/4+1)<=256)
 317  0138              ;# 317 "C:\HT-3000\UC_F5660\UC_F5660_main.c" 1
 317  0138              	MOV A,(10-( 9 + __PBP__ * 2))/0402h
 317  0138              ;# 317 "C:\HT-3000\UC_F5660\UC_F5660_main.c" 1
 317  0138              	MOV _builtin_holtek_delay_2,A
"File: UC_F5660_main.c  Assembler  Version HGASM0202      Page 23

 317  0138              ;# 317 "C:\HT-3000\UC_F5660\UC_F5660_main.c" 1
 317  0138              	MOV A,((10-( 9 + __PBP__ * 2))%0402h)/4+1
 317  0138              ;# 317 "C:\HT-3000\UC_F5660\UC_F5660_main.c" 1
 317  0138              	fcall __DELAYY3 +3-(((10-( 9 + __PBP__ * 2))%0402h)%4) 
 317  0138              	ENDIF
 317  0138  1580     R  	dec _init_HT16K33_2[0]
 295  0139              #line 295 "C:\HT-3000\UC_F5660\UC_F5660_main.c"
 295  0139  1600     R  	siza _init_HT16K33_2[0]
 295  013A  2800     R  	jmp _L45
 295  013B              _L43:
 323  013B              #line 323 "C:\HT-3000\UC_F5660\UC_F5660_main.c"
 323  013B              ;# 323 "C:\HT-3000\UC_F5660\UC_F5660_main.c" 1
 323  013B              	IF 10>263690
 323  013B              ;# 323 "C:\HT-3000\UC_F5660\UC_F5660_main.c" 1
 323  013B              	ERRMESSAGE 'the value 10of the argument exceeds the maxinum 263690'
 323  013B              	ENDIF
 323  013B              ;# 323 "C:\HT-3000\UC_F5660\UC_F5660_main.c" 1
 323  013B              	IF 10<0
 323  013B              ;# 323 "C:\HT-3000\UC_F5660\UC_F5660_main.c" 1
 323  013B              	ERRMESSAGE 'the value 10 of the argument exceeds the mininum 0'
 323  013B              	ENDIF
 323  013B              ;# 323 "C:\HT-3000\UC_F5660\UC_F5660_main.c" 1
 323  013B              	IF 10==0
 323  013B              ;# 323 "C:\HT-3000\UC_F5660\UC_F5660_main.c" 1
 323  013B              	JMP $
 323  013B              	ENDIF
 323  013B              ;# 323 "C:\HT-3000\UC_F5660\UC_F5660_main.c" 1
 323  013B              	IF (10>=1) AND (10<( 4 + __PBP__ * 2))
 323  013B              ;# 323 "C:\HT-3000\UC_F5660\UC_F5660_main.c" 1
 323  013B              	NOP
 323  013B              	ENDIF
 323  013B              ;# 323 "C:\HT-3000\UC_F5660\UC_F5660_main.c" 1
 323  013B              	IF (10>=2) AND (10<( 4 + __PBP__ * 2))
 323  013B              ;# 323 "C:\HT-3000\UC_F5660\UC_F5660_main.c" 1
 323  013B              	NOP
 323  013B              	ENDIF
 323  013B              ;# 323 "C:\HT-3000\UC_F5660\UC_F5660_main.c" 1
 323  013B              	IF (10>=3) AND (10<( 4 + __PBP__ * 2))
 323  013B              ;# 323 "C:\HT-3000\UC_F5660\UC_F5660_main.c" 1
 323  013B              	NOP
 323  013B              	ENDIF
 323  013B              ;# 323 "C:\HT-3000\UC_F5660\UC_F5660_main.c" 1
 323  013B              	IF (10>=4) AND (10<( 4 + __PBP__ * 2)) AND ( __PBP__ > 0 )
 323  013B              ;# 323 "C:\HT-3000\UC_F5660\UC_F5660_main.c" 1
 323  013B              	NOP
 323  013B              	ENDIF
 323  013B              ;# 323 "C:\HT-3000\UC_F5660\UC_F5660_main.c" 1
 323  013B              	IF (10>=5) AND (10<( 4 + __PBP__ * 2)) AND ( __PBP__ > 0 )
 323  013B              ;# 323 "C:\HT-3000\UC_F5660\UC_F5660_main.c" 1
 323  013B              	NOP
 323  013B              	ENDIF
 323  013B              ;# 323 "C:\HT-3000\UC_F5660\UC_F5660_main.c" 1
 323  013B              	IF (10>=6) AND (10<( 4 + __PBP__ * 2))  AND ( __PBP__ > 1 )
 323  013B              ;# 323 "C:\HT-3000\UC_F5660\UC_F5660_main.c" 1
 323  013B              	NOP
 323  013B              	ENDIF
 323  013B              ;# 323 "C:\HT-3000\UC_F5660\UC_F5660_main.c" 1
 323  013B              	IF (10>=7) AND (10<( 4 + __PBP__ * 2))  AND ( __PBP__ > 1 )
 323  013B              ;# 323 "C:\HT-3000\UC_F5660\UC_F5660_main.c" 1
 323  013B              	NOP
"File: UC_F5660_main.c  Assembler  Version HGASM0202      Page 24

 323  013B              	ENDIF
 323  013B              ;# 323 "C:\HT-3000\UC_F5660\UC_F5660_main.c" 1
 323  013B              	IF (10>=8) AND (10<( 4 + __PBP__ * 2))  AND ( __PBP__ > 2 )
 323  013B              ;# 323 "C:\HT-3000\UC_F5660\UC_F5660_main.c" 1
 323  013B              	NOP
 323  013B              	ENDIF
 323  013B              ;# 323 "C:\HT-3000\UC_F5660\UC_F5660_main.c" 1
 323  013B              	IF (10==9)  AND ( __PBP__ > 2 )
 323  013B              ;# 323 "C:\HT-3000\UC_F5660\UC_F5660_main.c" 1
 323  013B              	NOP
 323  013B              	ENDIF
 323  013B              ;# 323 "C:\HT-3000\UC_F5660\UC_F5660_main.c" 1
 323  013B              	IF (10< ( 8 + __PBP__ * 2)) AND (10>( 3 + __PBP__ * 2))
 323  013B              ;# 323 "C:\HT-3000\UC_F5660\UC_F5660_main.c" 1
 323  013B              	fcall __DELAY3 + ( 7 + __PBP__ * 2) -10
 323  013B              	ENDIF
 323  013B              ;# 323 "C:\HT-3000\UC_F5660\UC_F5660_main.c" 1
 323  013B              	IF (10< ( 0404h + __PBP__ * 2)) AND (10>( 7 + __PBP__ * 2))
 323  013B              ;# 323 "C:\HT-3000\UC_F5660\UC_F5660_main.c" 1
 323  013B  0F01        	MOV A,(10-( 4 + __PBP__ * 2))/4
 323  013C              ;# 323 "C:\HT-3000\UC_F5660\UC_F5660_main.c" 1
 323  013C              	fcall __DELAYX3 + 3 -((10-( 4 + __PBP__ * 2)) MOD 4) 
 323  0143              	ENDIF
 323  0143              ;# 323 "C:\HT-3000\UC_F5660\UC_F5660_main.c" 1
 323  0143              	IF (10< ( 040bh + __PBP__ * 2)) AND (10> ( 0403h + __PBP__ * 2))
 323  0143              ;# 323 "C:\HT-3000\UC_F5660\UC_F5660_main.c" 1
 323  0143              	MOV A,0 
 323  0143              ;# 323 "C:\HT-3000\UC_F5660\UC_F5660_main.c" 1
 323  0143              	fcall __DELAYX6 + ( 040ah + __PBP__ * 2) -10
 323  0143              	ENDIF
 323  0143              ;# 323 "C:\HT-3000\UC_F5660\UC_F5660_main.c" 1
 323  0143              	IF (10 >= ( 040bh + __PBP__ * 2)) AND ((((10-( 9 + __PBP__ * 2))%0402h)/4+1)>256)
 323  0143              ;# 323 "C:\HT-3000\UC_F5660\UC_F5660_main.c" 1
 323  0143              	MOV A,(10-( 9 + __PBP__ * 2))/0402h
 323  0143              ;# 323 "C:\HT-3000\UC_F5660\UC_F5660_main.c" 1
 323  0143              	MOV _builtin_holtek_delay_2,A
 323  0143              ;# 323 "C:\HT-3000\UC_F5660\UC_F5660_main.c" 1
 323  0143              	MOV A,0
 323  0143              ;# 323 "C:\HT-3000\UC_F5660\UC_F5660_main.c" 1
 323  0143              	fcall __DELAYY5 +5- (((10-( 9 + __PBP__ * 2))%0402h)%6) 
 323  0143              	ENDIF
 323  0143              ;# 323 "C:\HT-3000\UC_F5660\UC_F5660_main.c" 1
 323  0143              	IF (10 >= ( 040bh + __PBP__ * 2)) AND ((((10-( 9 + __PBP__ * 2))%0402h)/4+1)<=256)
 323  0143              ;# 323 "C:\HT-3000\UC_F5660\UC_F5660_main.c" 1
 323  0143              	MOV A,(10-( 9 + __PBP__ * 2))/0402h
 323  0143              ;# 323 "C:\HT-3000\UC_F5660\UC_F5660_main.c" 1
 323  0143              	MOV _builtin_holtek_delay_2,A
 323  0143              ;# 323 "C:\HT-3000\UC_F5660\UC_F5660_main.c" 1
 323  0143              	MOV A,((10-( 9 + __PBP__ * 2))%0402h)/4+1
 323  0143              ;# 323 "C:\HT-3000\UC_F5660\UC_F5660_main.c" 1
 323  0143              	fcall __DELAYY3 +3-(((10-( 9 + __PBP__ * 2))%0402h)%4) 
 323  0143              	ENDIF
 323  0143  0003        	ret
 323  0144              _init_HT16K33 endp
 323  0144              #line 323 "C:\HT-3000\UC_F5660\UC_F5660_main.c"
 323  0144              #pragma debug scope 1 1
 323  0144              public _show
 323  0144              #pragma debug scope 5 1
 341  0144              #line 341 "C:\HT-3000\UC_F5660\UC_F5660_main.c"
 341  0000              _show .section 'code'
"File: UC_F5660_main.c  Assembler  Version HGASM0202      Page 25

 341  0000              _show proc
 341  0000  0004[           local _show_2 db 4 dup(?)	; 0,4
            00
            ]
 342  0004              #line 342 "C:\HT-3000\UC_F5660\UC_F5660_main.c"
 342  0000  0F05        	mov a,5
 342  0001  0080     R  	mov _CheckAddressCnt[0],a
 342  0002              _L59:
 343  0002              #line 343 "C:\HT-3000\UC_F5660\UC_F5660_main.c"
 343  0002  1E00     R  	snz _CheckAddressCnt[0]
 343  0003  2800     R  	jmp _L73
 346  0004              #line 346 "C:\HT-3000\UC_F5660\UC_F5660_main.c"
 346  0004              	fcall _i2c_start
 347  000B              #line 347 "C:\HT-3000\UC_F5660\UC_F5660_main.c"
 347  000B  0FE0        	mov a,224
 347  000C              	fcall _i2c_write
 348  0013              #line 348 "C:\HT-3000\UC_F5660\UC_F5660_main.c"
 348  0013              	fcall _i2c_read_ACK
 348  001A  0080     E  	mov ra,a
 348  001B  1080     E  	sz ra
 348  001C  2800     R  	jmp _L60
 350  001D              #line 350 "C:\HT-3000\UC_F5660\UC_F5660_main.c"
 350  001D  0F00        	mov a,0
 350  001E              	fcall _i2c_write
 351  0025              #line 351 "C:\HT-3000\UC_F5660\UC_F5660_main.c"
 351  0025              	fcall _i2c_read_ACK
 351  002C  0080     E  	mov ra,a
 351  002D  1080     E  	sz ra
 351  002E  2800     R  	jmp _L60
 351  002F  1F00     R  	clr _show_2[0]
 351  0030  1F00     R  	clr _show_2[1]
 351  0031              _L66:
 351  0031  340A        	clr c
 351  0032  1A00     R  	rlca _show_2[0]
 351  0033  0080     E  	mov rb,a
 351  0034  1A00     R  	rlca _show_2[1]
 351  0035  0080     E  	mov rc,a
 351  0036  0F00     R  	mov a,low offset _display_Buffer
 351  0037  0300     E  	add a,rb
 351  0038  0080     R  	mov _show_2[2],a
 351  0039  0F00     R  	mov a,high offset _display_Buffer
 351  003A  1300     E  	adc a,rc
 351  003B  0080     R  	mov _show_2[3],a
 351  003C              #pragma debug scope 6 5
 351  003C              ;begin block, line: 351.-1
 351  003C              #pragma debug variable 11 6 _show_2+0 "i"
 356  003C              #line 356 "C:\HT-3000\UC_F5660\UC_F5660_main.c"
 356  003C  0700     R  	mov a,_show_2[2]
 356  003D  0083        	mov mp,a
 356  003E  0700     R  	mov a,_show_2[3]
 356  003F  0084        	mov sbp,a
 356  0040              	fcall _Crom2Prom
 356  0047  0080     E  	mov rb,a
 356  0048              	fcall _Crom2PromNext
 356  004F  0080     E  	mov rc,a
 356  0050  0700     E  	mov a,rc
 356  0051              	fcall _i2c_write
 357  0058              #line 357 "C:\HT-3000\UC_F5660\UC_F5660_main.c"
 357  0058              	fcall _i2c_read_ACK
 357  005F  0080     E  	mov ra,a
"File: UC_F5660_main.c  Assembler  Version HGASM0202      Page 26

 357  0060  1080     E  	sz ra
 357  0061  2800     R  	jmp _L60
 359  0062              #line 359 "C:\HT-3000\UC_F5660\UC_F5660_main.c"
 359  0062  0700     R  	mov a,_show_2[2]
 359  0063  0083        	mov mp,a
 359  0064  0700     R  	mov a,_show_2[3]
 359  0065  0084        	mov sbp,a
 359  0066              	fcall _Crom2Prom
 359  006D              	fcall _i2c_write
 360  0074              #line 360 "C:\HT-3000\UC_F5660\UC_F5660_main.c"
 360  0074              	fcall _i2c_read_ACK
 360  007B  0080     E  	mov ra,a
 360  007C  1080     E  	sz ra
 360  007D  2800     R  	jmp _L60
 362  007E              #line 362 "C:\HT-3000\UC_F5660\UC_F5660_main.c"
 362  007E  0700     R  	mov a,_show_2[0]
 362  007F  0C07        	xor a,7
 362  0080  0500     R  	or a,_show_2[1]
 362  0081  390A        	snz z
 362  0082  2800     R  	jmp _L64
 364  0083              #line 364 "C:\HT-3000\UC_F5660\UC_F5660_main.c"
 364  0083              	fcall _i2c_stop
 365  008A              #line 365 "C:\HT-3000\UC_F5660\UC_F5660_main.c"
 365  008A  2800     R  	jmp _L58
 365  008B              _L64:
 354  008B              #line 354 "C:\HT-3000\UC_F5660\UC_F5660_main.c"
 354  008B  1480     R  	inc _show_2[0]
 354  008C  3D0A        	sz z
 354  008D  1480     R  	inc _show_2[1]
 354  008E  2800     R  	jmp _L66
 354  008F              _L60:
 354  008F              #pragma debug scope 5 1
 392  008F              #line 392 "C:\HT-3000\UC_F5660\UC_F5660_main.c"
 392  008F              	fcall _i2c_stop
 393  0096              #line 393 "C:\HT-3000\UC_F5660\UC_F5660_main.c"
 393  0096              ;# 393 "C:\HT-3000\UC_F5660\UC_F5660_main.c" 1
 393  0096              	IF 10>263690
 393  0096              ;# 393 "C:\HT-3000\UC_F5660\UC_F5660_main.c" 1
 393  0096              	ERRMESSAGE 'the value 10of the argument exceeds the maxinum 263690'
 393  0096              	ENDIF
 393  0096              ;# 393 "C:\HT-3000\UC_F5660\UC_F5660_main.c" 1
 393  0096              	IF 10<0
 393  0096              ;# 393 "C:\HT-3000\UC_F5660\UC_F5660_main.c" 1
 393  0096              	ERRMESSAGE 'the value 10 of the argument exceeds the mininum 0'
 393  0096              	ENDIF
 393  0096              ;# 393 "C:\HT-3000\UC_F5660\UC_F5660_main.c" 1
 393  0096              	IF 10==0
 393  0096              ;# 393 "C:\HT-3000\UC_F5660\UC_F5660_main.c" 1
 393  0096              	JMP $
 393  0096              	ENDIF
 393  0096              ;# 393 "C:\HT-3000\UC_F5660\UC_F5660_main.c" 1
 393  0096              	IF (10>=1) AND (10<( 4 + __PBP__ * 2))
 393  0096              ;# 393 "C:\HT-3000\UC_F5660\UC_F5660_main.c" 1
 393  0096              	NOP
 393  0096              	ENDIF
 393  0096              ;# 393 "C:\HT-3000\UC_F5660\UC_F5660_main.c" 1
 393  0096              	IF (10>=2) AND (10<( 4 + __PBP__ * 2))
 393  0096              ;# 393 "C:\HT-3000\UC_F5660\UC_F5660_main.c" 1
 393  0096              	NOP
 393  0096              	ENDIF
"File: UC_F5660_main.c  Assembler  Version HGASM0202      Page 27

 393  0096              ;# 393 "C:\HT-3000\UC_F5660\UC_F5660_main.c" 1
 393  0096              	IF (10>=3) AND (10<( 4 + __PBP__ * 2))
 393  0096              ;# 393 "C:\HT-3000\UC_F5660\UC_F5660_main.c" 1
 393  0096              	NOP
 393  0096              	ENDIF
 393  0096              ;# 393 "C:\HT-3000\UC_F5660\UC_F5660_main.c" 1
 393  0096              	IF (10>=4) AND (10<( 4 + __PBP__ * 2)) AND ( __PBP__ > 0 )
 393  0096              ;# 393 "C:\HT-3000\UC_F5660\UC_F5660_main.c" 1
 393  0096              	NOP
 393  0096              	ENDIF
 393  0096              ;# 393 "C:\HT-3000\UC_F5660\UC_F5660_main.c" 1
 393  0096              	IF (10>=5) AND (10<( 4 + __PBP__ * 2)) AND ( __PBP__ > 0 )
 393  0096              ;# 393 "C:\HT-3000\UC_F5660\UC_F5660_main.c" 1
 393  0096              	NOP
 393  0096              	ENDIF
 393  0096              ;# 393 "C:\HT-3000\UC_F5660\UC_F5660_main.c" 1
 393  0096              	IF (10>=6) AND (10<( 4 + __PBP__ * 2))  AND ( __PBP__ > 1 )
 393  0096              ;# 393 "C:\HT-3000\UC_F5660\UC_F5660_main.c" 1
 393  0096              	NOP
 393  0096              	ENDIF
 393  0096              ;# 393 "C:\HT-3000\UC_F5660\UC_F5660_main.c" 1
 393  0096              	IF (10>=7) AND (10<( 4 + __PBP__ * 2))  AND ( __PBP__ > 1 )
 393  0096              ;# 393 "C:\HT-3000\UC_F5660\UC_F5660_main.c" 1
 393  0096              	NOP
 393  0096              	ENDIF
 393  0096              ;# 393 "C:\HT-3000\UC_F5660\UC_F5660_main.c" 1
 393  0096              	IF (10>=8) AND (10<( 4 + __PBP__ * 2))  AND ( __PBP__ > 2 )
 393  0096              ;# 393 "C:\HT-3000\UC_F5660\UC_F5660_main.c" 1
 393  0096              	NOP
 393  0096              	ENDIF
 393  0096              ;# 393 "C:\HT-3000\UC_F5660\UC_F5660_main.c" 1
 393  0096              	IF (10==9)  AND ( __PBP__ > 2 )
 393  0096              ;# 393 "C:\HT-3000\UC_F5660\UC_F5660_main.c" 1
 393  0096              	NOP
 393  0096              	ENDIF
 393  0096              ;# 393 "C:\HT-3000\UC_F5660\UC_F5660_main.c" 1
 393  0096              	IF (10< ( 8 + __PBP__ * 2)) AND (10>( 3 + __PBP__ * 2))
 393  0096              ;# 393 "C:\HT-3000\UC_F5660\UC_F5660_main.c" 1
 393  0096              	fcall __DELAY3 + ( 7 + __PBP__ * 2) -10
 393  0096              	ENDIF
 393  0096              ;# 393 "C:\HT-3000\UC_F5660\UC_F5660_main.c" 1
 393  0096              	IF (10< ( 0404h + __PBP__ * 2)) AND (10>( 7 + __PBP__ * 2))
 393  0096              ;# 393 "C:\HT-3000\UC_F5660\UC_F5660_main.c" 1
 393  0096  0F01        	MOV A,(10-( 4 + __PBP__ * 2))/4
 393  0097              ;# 393 "C:\HT-3000\UC_F5660\UC_F5660_main.c" 1
 393  0097              	fcall __DELAYX3 + 3 -((10-( 4 + __PBP__ * 2)) MOD 4) 
 393  009E              	ENDIF
 393  009E              ;# 393 "C:\HT-3000\UC_F5660\UC_F5660_main.c" 1
 393  009E              	IF (10< ( 040bh + __PBP__ * 2)) AND (10> ( 0403h + __PBP__ * 2))
 393  009E              ;# 393 "C:\HT-3000\UC_F5660\UC_F5660_main.c" 1
 393  009E              	MOV A,0 
 393  009E              ;# 393 "C:\HT-3000\UC_F5660\UC_F5660_main.c" 1
 393  009E              	fcall __DELAYX6 + ( 040ah + __PBP__ * 2) -10
 393  009E              	ENDIF
 393  009E              ;# 393 "C:\HT-3000\UC_F5660\UC_F5660_main.c" 1
 393  009E              	IF (10 >= ( 040bh + __PBP__ * 2)) AND ((((10-( 9 + __PBP__ * 2))%0402h)/4+1)>256)
 393  009E              ;# 393 "C:\HT-3000\UC_F5660\UC_F5660_main.c" 1
 393  009E              	MOV A,(10-( 9 + __PBP__ * 2))/0402h
 393  009E              ;# 393 "C:\HT-3000\UC_F5660\UC_F5660_main.c" 1
 393  009E              	MOV _builtin_holtek_delay_2,A
"File: UC_F5660_main.c  Assembler  Version HGASM0202      Page 28

 393  009E              ;# 393 "C:\HT-3000\UC_F5660\UC_F5660_main.c" 1
 393  009E              	MOV A,0
 393  009E              ;# 393 "C:\HT-3000\UC_F5660\UC_F5660_main.c" 1
 393  009E              	fcall __DELAYY5 +5- (((10-( 9 + __PBP__ * 2))%0402h)%6) 
 393  009E              	ENDIF
 393  009E              ;# 393 "C:\HT-3000\UC_F5660\UC_F5660_main.c" 1
 393  009E              	IF (10 >= ( 040bh + __PBP__ * 2)) AND ((((10-( 9 + __PBP__ * 2))%0402h)/4+1)<=256)
 393  009E              ;# 393 "C:\HT-3000\UC_F5660\UC_F5660_main.c" 1
 393  009E              	MOV A,(10-( 9 + __PBP__ * 2))/0402h
 393  009E              ;# 393 "C:\HT-3000\UC_F5660\UC_F5660_main.c" 1
 393  009E              	MOV _builtin_holtek_delay_2,A
 393  009E              ;# 393 "C:\HT-3000\UC_F5660\UC_F5660_main.c" 1
 393  009E              	MOV A,((10-( 9 + __PBP__ * 2))%0402h)/4+1
 393  009E              ;# 393 "C:\HT-3000\UC_F5660\UC_F5660_main.c" 1
 393  009E              	fcall __DELAYY3 +3-(((10-( 9 + __PBP__ * 2))%0402h)%4) 
 393  009E              	ENDIF
 394  009E              #line 394 "C:\HT-3000\UC_F5660\UC_F5660_main.c"
 394  009E  1580     R  	dec _CheckAddressCnt[0]
 395  009F              #line 395 "C:\HT-3000\UC_F5660\UC_F5660_main.c"
 395  009F  2800     R  	jmp _L59
 395  00A0              _L73:
 399  00A0              #line 399 "C:\HT-3000\UC_F5660\UC_F5660_main.c"
 399  00A0              ;# 399 "C:\HT-3000\UC_F5660\UC_F5660_main.c" 1
 399  00A0              	IF 10>263690
 399  00A0              ;# 399 "C:\HT-3000\UC_F5660\UC_F5660_main.c" 1
 399  00A0              	ERRMESSAGE 'the value 10of the argument exceeds the maxinum 263690'
 399  00A0              	ENDIF
 399  00A0              ;# 399 "C:\HT-3000\UC_F5660\UC_F5660_main.c" 1
 399  00A0              	IF 10<0
 399  00A0              ;# 399 "C:\HT-3000\UC_F5660\UC_F5660_main.c" 1
 399  00A0              	ERRMESSAGE 'the value 10 of the argument exceeds the mininum 0'
 399  00A0              	ENDIF
 399  00A0              ;# 399 "C:\HT-3000\UC_F5660\UC_F5660_main.c" 1
 399  00A0              	IF 10==0
 399  00A0              ;# 399 "C:\HT-3000\UC_F5660\UC_F5660_main.c" 1
 399  00A0              	JMP $
 399  00A0              	ENDIF
 399  00A0              ;# 399 "C:\HT-3000\UC_F5660\UC_F5660_main.c" 1
 399  00A0              	IF (10>=1) AND (10<( 4 + __PBP__ * 2))
 399  00A0              ;# 399 "C:\HT-3000\UC_F5660\UC_F5660_main.c" 1
 399  00A0              	NOP
 399  00A0              	ENDIF
 399  00A0              ;# 399 "C:\HT-3000\UC_F5660\UC_F5660_main.c" 1
 399  00A0              	IF (10>=2) AND (10<( 4 + __PBP__ * 2))
 399  00A0              ;# 399 "C:\HT-3000\UC_F5660\UC_F5660_main.c" 1
 399  00A0              	NOP
 399  00A0              	ENDIF
 399  00A0              ;# 399 "C:\HT-3000\UC_F5660\UC_F5660_main.c" 1
 399  00A0              	IF (10>=3) AND (10<( 4 + __PBP__ * 2))
 399  00A0              ;# 399 "C:\HT-3000\UC_F5660\UC_F5660_main.c" 1
 399  00A0              	NOP
 399  00A0              	ENDIF
 399  00A0              ;# 399 "C:\HT-3000\UC_F5660\UC_F5660_main.c" 1
 399  00A0              	IF (10>=4) AND (10<( 4 + __PBP__ * 2)) AND ( __PBP__ > 0 )
 399  00A0              ;# 399 "C:\HT-3000\UC_F5660\UC_F5660_main.c" 1
 399  00A0              	NOP
 399  00A0              	ENDIF
 399  00A0              ;# 399 "C:\HT-3000\UC_F5660\UC_F5660_main.c" 1
 399  00A0              	IF (10>=5) AND (10<( 4 + __PBP__ * 2)) AND ( __PBP__ > 0 )
 399  00A0              ;# 399 "C:\HT-3000\UC_F5660\UC_F5660_main.c" 1
"File: UC_F5660_main.c  Assembler  Version HGASM0202      Page 29

 399  00A0              	NOP
 399  00A0              	ENDIF
 399  00A0              ;# 399 "C:\HT-3000\UC_F5660\UC_F5660_main.c" 1
 399  00A0              	IF (10>=6) AND (10<( 4 + __PBP__ * 2))  AND ( __PBP__ > 1 )
 399  00A0              ;# 399 "C:\HT-3000\UC_F5660\UC_F5660_main.c" 1
 399  00A0              	NOP
 399  00A0              	ENDIF
 399  00A0              ;# 399 "C:\HT-3000\UC_F5660\UC_F5660_main.c" 1
 399  00A0              	IF (10>=7) AND (10<( 4 + __PBP__ * 2))  AND ( __PBP__ > 1 )
 399  00A0              ;# 399 "C:\HT-3000\UC_F5660\UC_F5660_main.c" 1
 399  00A0              	NOP
 399  00A0              	ENDIF
 399  00A0              ;# 399 "C:\HT-3000\UC_F5660\UC_F5660_main.c" 1
 399  00A0              	IF (10>=8) AND (10<( 4 + __PBP__ * 2))  AND ( __PBP__ > 2 )
 399  00A0              ;# 399 "C:\HT-3000\UC_F5660\UC_F5660_main.c" 1
 399  00A0              	NOP
 399  00A0              	ENDIF
 399  00A0              ;# 399 "C:\HT-3000\UC_F5660\UC_F5660_main.c" 1
 399  00A0              	IF (10==9)  AND ( __PBP__ > 2 )
 399  00A0              ;# 399 "C:\HT-3000\UC_F5660\UC_F5660_main.c" 1
 399  00A0              	NOP
 399  00A0              	ENDIF
 399  00A0              ;# 399 "C:\HT-3000\UC_F5660\UC_F5660_main.c" 1
 399  00A0              	IF (10< ( 8 + __PBP__ * 2)) AND (10>( 3 + __PBP__ * 2))
 399  00A0              ;# 399 "C:\HT-3000\UC_F5660\UC_F5660_main.c" 1
 399  00A0              	fcall __DELAY3 + ( 7 + __PBP__ * 2) -10
 399  00A0              	ENDIF
 399  00A0              ;# 399 "C:\HT-3000\UC_F5660\UC_F5660_main.c" 1
 399  00A0              	IF (10< ( 0404h + __PBP__ * 2)) AND (10>( 7 + __PBP__ * 2))
 399  00A0              ;# 399 "C:\HT-3000\UC_F5660\UC_F5660_main.c" 1
 399  00A0  0F01        	MOV A,(10-( 4 + __PBP__ * 2))/4
 399  00A1              ;# 399 "C:\HT-3000\UC_F5660\UC_F5660_main.c" 1
 399  00A1              	fcall __DELAYX3 + 3 -((10-( 4 + __PBP__ * 2)) MOD 4) 
 399  00A8              	ENDIF
 399  00A8              ;# 399 "C:\HT-3000\UC_F5660\UC_F5660_main.c" 1
 399  00A8              	IF (10< ( 040bh + __PBP__ * 2)) AND (10> ( 0403h + __PBP__ * 2))
 399  00A8              ;# 399 "C:\HT-3000\UC_F5660\UC_F5660_main.c" 1
 399  00A8              	MOV A,0 
 399  00A8              ;# 399 "C:\HT-3000\UC_F5660\UC_F5660_main.c" 1
 399  00A8              	fcall __DELAYX6 + ( 040ah + __PBP__ * 2) -10
 399  00A8              	ENDIF
 399  00A8              ;# 399 "C:\HT-3000\UC_F5660\UC_F5660_main.c" 1
 399  00A8              	IF (10 >= ( 040bh + __PBP__ * 2)) AND ((((10-( 9 + __PBP__ * 2))%0402h)/4+1)>256)
 399  00A8              ;# 399 "C:\HT-3000\UC_F5660\UC_F5660_main.c" 1
 399  00A8              	MOV A,(10-( 9 + __PBP__ * 2))/0402h
 399  00A8              ;# 399 "C:\HT-3000\UC_F5660\UC_F5660_main.c" 1
 399  00A8              	MOV _builtin_holtek_delay_2,A
 399  00A8              ;# 399 "C:\HT-3000\UC_F5660\UC_F5660_main.c" 1
 399  00A8              	MOV A,0
 399  00A8              ;# 399 "C:\HT-3000\UC_F5660\UC_F5660_main.c" 1
 399  00A8              	fcall __DELAYY5 +5- (((10-( 9 + __PBP__ * 2))%0402h)%6) 
 399  00A8              	ENDIF
 399  00A8              ;# 399 "C:\HT-3000\UC_F5660\UC_F5660_main.c" 1
 399  00A8              	IF (10 >= ( 040bh + __PBP__ * 2)) AND ((((10-( 9 + __PBP__ * 2))%0402h)/4+1)<=256)
 399  00A8              ;# 399 "C:\HT-3000\UC_F5660\UC_F5660_main.c" 1
 399  00A8              	MOV A,(10-( 9 + __PBP__ * 2))/0402h
 399  00A8              ;# 399 "C:\HT-3000\UC_F5660\UC_F5660_main.c" 1
 399  00A8              	MOV _builtin_holtek_delay_2,A
 399  00A8              ;# 399 "C:\HT-3000\UC_F5660\UC_F5660_main.c" 1
 399  00A8              	MOV A,((10-( 9 + __PBP__ * 2))%0402h)/4+1
"File: UC_F5660_main.c  Assembler  Version HGASM0202      Page 30

 399  00A8              ;# 399 "C:\HT-3000\UC_F5660\UC_F5660_main.c" 1
 399  00A8              	fcall __DELAYY3 +3-(((10-( 9 + __PBP__ * 2))%0402h)%4) 
 399  00A8              	ENDIF
 399  00A8              _L58:
 399  00A8  0003        	ret
 399  00A9              _show endp
 399  00A9              #line 399 "C:\HT-3000\UC_F5660\UC_F5660_main.c"
 399  00A9              #pragma debug scope 1 1
 399  00A9              public _LED_all_TURN_ON
 399  00A9              #pragma debug scope 7 1
 112  00A9              #line 112 "C:\HT-3000\UC_F5660\UC_F5660_main.c"
 112  0000              _LED_all_TURN_ON .section 'code'
 112  0000              _LED_all_TURN_ON proc
 113  0000              #line 113 "C:\HT-3000\UC_F5660\UC_F5660_main.c"
 113  0000  0F01        	mov a,1
 113  0001  0080     R  	mov _display_Buffer[0],a
 113  0002  0F7F        	mov a,127
 113  0003  0080     R  	mov _display_Buffer[1],a
 114  0004              #line 114 "C:\HT-3000\UC_F5660\UC_F5660_main.c"
 114  0004  0F01        	mov a,1
 114  0005  0080     R  	mov _display_Buffer[2],a
 114  0006  0F7F        	mov a,127
 114  0007  0080     R  	mov _display_Buffer[3],a
 115  0008              #line 115 "C:\HT-3000\UC_F5660\UC_F5660_main.c"
 115  0008  0F01        	mov a,1
 115  0009  0080     R  	mov _display_Buffer[4],a
 115  000A  0F7F        	mov a,127
 115  000B  0080     R  	mov _display_Buffer[5],a
 116  000C              #line 116 "C:\HT-3000\UC_F5660\UC_F5660_main.c"
 116  000C  0F01        	mov a,1
 116  000D  0080     R  	mov _display_Buffer[6],a
 116  000E  0F7F        	mov a,127
 116  000F  0080     R  	mov _display_Buffer[7],a
 117  0010              #line 117 "C:\HT-3000\UC_F5660\UC_F5660_main.c"
 117  0010  0F01        	mov a,1
 117  0011  0080     R  	mov _display_Buffer[8],a
 117  0012  0F7F        	mov a,127
 117  0013  0080     R  	mov _display_Buffer[9],a
 118  0014              #line 118 "C:\HT-3000\UC_F5660\UC_F5660_main.c"
 118  0014  0F01        	mov a,1
 118  0015  0080     R  	mov _display_Buffer[10],a
 118  0016  1F80     R  	set _display_Buffer[11]
 119  0017              #line 119 "C:\HT-3000\UC_F5660\UC_F5660_main.c"
 119  0017              	fcall _show
 119  001E  0003        	ret
 119  001F              _LED_all_TURN_ON endp
 119  001F              #line 119 "C:\HT-3000\UC_F5660\UC_F5660_main.c"
 119  001F              #pragma debug scope 1 1
 119  001F              public _Number9to0
 119  001F              #pragma debug scope 8 1
 125  001F              #line 125 "C:\HT-3000\UC_F5660\UC_F5660_main.c"
 125  0000              _Number9to0 .section 'code'
 125  0000              _Number9to0 proc
 125  0000  0002[           local _Number9to0_2 db 2 dup(?)	; 0,2
            00
            ]
 125  0002              #pragma debug variable 11 8 _Number9to0_2+0 "i"
 127  0002              #line 127 "C:\HT-3000\UC_F5660\UC_F5660_main.c"
 127  0000  1F00     R  	clr _Number9to0_2[0]
 127  0001  1F00     R  	clr _Number9to0_2[1]
"File: UC_F5660_main.c  Assembler  Version HGASM0202      Page 31

 127  0002              _L76:
 127  0002  340A        	clr c
 127  0003  1A00     R  	rlca _Number9to0_2[0]
 127  0004  0080     E  	mov rb,a
 127  0005  1A00     R  	rlca _Number9to0_2[1]
 127  0006  0080     E  	mov rc,a
 127  0007              #pragma debug scope 9 8
 127  0007              ;begin block, line: 127.-1
 132  0007              #line 132 "C:\HT-3000\UC_F5660\UC_F5660_main.c"
 132  0007  0F00     R  	mov a,low offset _numbertable
 132  0008  0300     E  	add a,rb
 132  0009  0083        	mov mp,a
 132  000A  0F00     R  	mov a,high offset _numbertable
 132  000B  1300     E  	adc a,rc
 132  000C  0084        	mov sbp,a
 132  000D              	fcall _Crom2Prom
 132  0014  0080     E  	mov rd,a
 132  0015              	fcall _Crom2PromNext
 132  001C  0080     E  	mov re,a
 132  001D  1F00     E  	clr rb
 132  001E  1F00     E  	clr rc
 132  001F              _L79:
 132  001F  340A        	clr c
 132  0020  1A00     E  	rlca rb
 132  0021  0080     E  	mov rf,a
 132  0022  1A00     E  	rlca rc
 132  0023  0080     E  	mov rg,a
 132  0024  0F00     R  	mov a,low offset _display_Buffer
 132  0025  0300     E  	add a,rf
 132  0026  0083        	mov mp,a
 132  0027  0F00     R  	mov a,high offset _display_Buffer
 132  0028  1300     E  	adc a,rg
 132  0029  0084        	mov sbp,a
 132  002A  0700     E  	mov a,rd
 132  002B  0082        	mov ir,a
 132  002C  1483        	inc mp
 132  002D  0700     E  	mov a,re
 132  002E  0082        	mov ir,a
 130  002F              #line 130 "C:\HT-3000\UC_F5660\UC_F5660_main.c"
 130  002F  1480     E  	inc rb
 130  0030  3D0A        	sz z
 130  0031  1480     E  	inc rc
 130  0032  0700     E  	mov a,rb
 130  0033  0C05        	xor a,5
 130  0034  0500     E  	or a,rc
 130  0035  390A        	snz z
 130  0036  2800     R  	jmp _L79
 134  0037              #line 134 "C:\HT-3000\UC_F5660\UC_F5660_main.c"
 134  0037              	fcall _show
 135  003E              #line 135 "C:\HT-3000\UC_F5660\UC_F5660_main.c"
 135  003E              ;# 135 "C:\HT-3000\UC_F5660\UC_F5660_main.c" 1
 135  003E              	IF 263690>263690
 135  003E              ;# 135 "C:\HT-3000\UC_F5660\UC_F5660_main.c" 1
 135  003E              	ERRMESSAGE 'the value 263690of the argument exceeds the maxinum 263690'
 135  003E              	ENDIF
 135  003E              ;# 135 "C:\HT-3000\UC_F5660\UC_F5660_main.c" 1
 135  003E              	IF 263690<0
 135  003E              ;# 135 "C:\HT-3000\UC_F5660\UC_F5660_main.c" 1
 135  003E              	ERRMESSAGE 'the value 263690 of the argument exceeds the mininum 0'
 135  003E              	ENDIF
"File: UC_F5660_main.c  Assembler  Version HGASM0202      Page 32

 135  003E              ;# 135 "C:\HT-3000\UC_F5660\UC_F5660_main.c" 1
 135  003E              	IF 263690==0
 135  003E              ;# 135 "C:\HT-3000\UC_F5660\UC_F5660_main.c" 1
 135  003E              	JMP $
 135  003E              	ENDIF
 135  003E              ;# 135 "C:\HT-3000\UC_F5660\UC_F5660_main.c" 1
 135  003E              	IF (263690>=1) AND (263690<( 4 + __PBP__ * 2))
 135  003E              ;# 135 "C:\HT-3000\UC_F5660\UC_F5660_main.c" 1
 135  003E              	NOP
 135  003E              	ENDIF
 135  003E              ;# 135 "C:\HT-3000\UC_F5660\UC_F5660_main.c" 1
 135  003E              	IF (263690>=2) AND (263690<( 4 + __PBP__ * 2))
 135  003E              ;# 135 "C:\HT-3000\UC_F5660\UC_F5660_main.c" 1
 135  003E              	NOP
 135  003E              	ENDIF
 135  003E              ;# 135 "C:\HT-3000\UC_F5660\UC_F5660_main.c" 1
 135  003E              	IF (263690>=3) AND (263690<( 4 + __PBP__ * 2))
 135  003E              ;# 135 "C:\HT-3000\UC_F5660\UC_F5660_main.c" 1
 135  003E              	NOP
 135  003E              	ENDIF
 135  003E              ;# 135 "C:\HT-3000\UC_F5660\UC_F5660_main.c" 1
 135  003E              	IF (263690>=4) AND (263690<( 4 + __PBP__ * 2)) AND ( __PBP__ > 0 )
 135  003E              ;# 135 "C:\HT-3000\UC_F5660\UC_F5660_main.c" 1
 135  003E              	NOP
 135  003E              	ENDIF
 135  003E              ;# 135 "C:\HT-3000\UC_F5660\UC_F5660_main.c" 1
 135  003E              	IF (263690>=5) AND (263690<( 4 + __PBP__ * 2)) AND ( __PBP__ > 0 )
 135  003E              ;# 135 "C:\HT-3000\UC_F5660\UC_F5660_main.c" 1
 135  003E              	NOP
 135  003E              	ENDIF
 135  003E              ;# 135 "C:\HT-3000\UC_F5660\UC_F5660_main.c" 1
 135  003E              	IF (263690>=6) AND (263690<( 4 + __PBP__ * 2))  AND ( __PBP__ > 1 )
 135  003E              ;# 135 "C:\HT-3000\UC_F5660\UC_F5660_main.c" 1
 135  003E              	NOP
 135  003E              	ENDIF
 135  003E              ;# 135 "C:\HT-3000\UC_F5660\UC_F5660_main.c" 1
 135  003E              	IF (263690>=7) AND (263690<( 4 + __PBP__ * 2))  AND ( __PBP__ > 1 )
 135  003E              ;# 135 "C:\HT-3000\UC_F5660\UC_F5660_main.c" 1
 135  003E              	NOP
 135  003E              	ENDIF
 135  003E              ;# 135 "C:\HT-3000\UC_F5660\UC_F5660_main.c" 1
 135  003E              	IF (263690>=8) AND (263690<( 4 + __PBP__ * 2))  AND ( __PBP__ > 2 )
 135  003E              ;# 135 "C:\HT-3000\UC_F5660\UC_F5660_main.c" 1
 135  003E              	NOP
 135  003E              	ENDIF
 135  003E              ;# 135 "C:\HT-3000\UC_F5660\UC_F5660_main.c" 1
 135  003E              	IF (263690==9)  AND ( __PBP__ > 2 )
 135  003E              ;# 135 "C:\HT-3000\UC_F5660\UC_F5660_main.c" 1
 135  003E              	NOP
 135  003E              	ENDIF
 135  003E              ;# 135 "C:\HT-3000\UC_F5660\UC_F5660_main.c" 1
 135  003E              	IF (263690< ( 8 + __PBP__ * 2)) AND (263690>( 3 + __PBP__ * 2))
 135  003E              ;# 135 "C:\HT-3000\UC_F5660\UC_F5660_main.c" 1
 135  003E              	fcall __DELAY3 + ( 7 + __PBP__ * 2) -263690
 135  003E              	ENDIF
 135  003E              ;# 135 "C:\HT-3000\UC_F5660\UC_F5660_main.c" 1
 135  003E              	IF (263690< ( 0404h + __PBP__ * 2)) AND (263690>( 7 + __PBP__ * 2))
 135  003E              ;# 135 "C:\HT-3000\UC_F5660\UC_F5660_main.c" 1
 135  003E              	MOV A,(263690-( 4 + __PBP__ * 2))/4
 135  003E              ;# 135 "C:\HT-3000\UC_F5660\UC_F5660_main.c" 1
"File: UC_F5660_main.c  Assembler  Version HGASM0202      Page 33

 135  003E              	fcall __DELAYX3 + 3 -((263690-( 4 + __PBP__ * 2)) MOD 4) 
 135  003E              	ENDIF
 135  003E              ;# 135 "C:\HT-3000\UC_F5660\UC_F5660_main.c" 1
 135  003E              	IF (263690< ( 040bh + __PBP__ * 2)) AND (263690> ( 0403h + __PBP__ * 2))
 135  003E              ;# 135 "C:\HT-3000\UC_F5660\UC_F5660_main.c" 1
 135  003E              	MOV A,0 
 135  003E              ;# 135 "C:\HT-3000\UC_F5660\UC_F5660_main.c" 1
 135  003E              	fcall __DELAYX6 + ( 040ah + __PBP__ * 2) -263690
 135  003E              	ENDIF
 135  003E              ;# 135 "C:\HT-3000\UC_F5660\UC_F5660_main.c" 1
 135  003E              	IF (263690 >= ( 040bh + __PBP__ * 2)) AND ((((263690-( 9 + __PBP__ * 2))%0402h)/4+1)>256)
 135  003E              ;# 135 "C:\HT-3000\UC_F5660\UC_F5660_main.c" 1
 135  003E              	MOV A,(263690-( 9 + __PBP__ * 2))/0402h
 135  003E              ;# 135 "C:\HT-3000\UC_F5660\UC_F5660_main.c" 1
 135  003E              	MOV _builtin_holtek_delay_2,A
 135  003E              ;# 135 "C:\HT-3000\UC_F5660\UC_F5660_main.c" 1
 135  003E              	MOV A,0
 135  003E              ;# 135 "C:\HT-3000\UC_F5660\UC_F5660_main.c" 1
 135  003E              	fcall __DELAYY5 +5- (((263690-( 9 + __PBP__ * 2))%0402h)%6) 
 135  003E              	ENDIF
 135  003E              ;# 135 "C:\HT-3000\UC_F5660\UC_F5660_main.c" 1
 135  003E              	IF (263690 >= ( 040bh + __PBP__ * 2)) AND ((((263690-( 9 + __PBP__ * 2))%0402h)/4+1)<=256)
 135  003E              ;# 135 "C:\HT-3000\UC_F5660\UC_F5660_main.c" 1
 135  003E  0F00        	MOV A,(263690-( 9 + __PBP__ * 2))/0402h
 135  003F              ;# 135 "C:\HT-3000\UC_F5660\UC_F5660_main.c" 1
 135  003F  0080     E  	MOV _builtin_holtek_delay_2,A
 135  0040              ;# 135 "C:\HT-3000\UC_F5660\UC_F5660_main.c" 1
 135  0040  0F00        	MOV A,((263690-( 9 + __PBP__ * 2))%0402h)/4+1
 135  0041              ;# 135 "C:\HT-3000\UC_F5660\UC_F5660_main.c" 1
 135  0041              	fcall __DELAYY3 +3-(((263690-( 9 + __PBP__ * 2))%0402h)%4) 
 135  0048              	ENDIF
 135  0048              #pragma debug scope 8 1
 127  0048              #line 127 "C:\HT-3000\UC_F5660\UC_F5660_main.c"
 127  0048  1480     R  	inc _Number9to0_2[0]
 127  0049  3D0A        	sz z
 127  004A  1480     R  	inc _Number9to0_2[1]
 127  004B  0700     R  	mov a,_Number9to0_2[0]
 127  004C  0C0A        	xor a,10
 127  004D  0500     R  	or a,_Number9to0_2[1]
 127  004E  390A        	snz z
 127  004F  2800     R  	jmp _L76
 127  0050  0003        	ret
 127  0051              _Number9to0 endp
 127  0051              #line 127 "C:\HT-3000\UC_F5660\UC_F5660_main.c"
 127  0051              #pragma debug scope 1 1
 127  0051              public _HT16K33_LED_RAM_Clear
 127  0051              #pragma debug scope 10 1
 328  0051              #line 328 "C:\HT-3000\UC_F5660\UC_F5660_main.c"
 328  0000              _HT16K33_LED_RAM_Clear .section 'code'
 328  0000              _HT16K33_LED_RAM_Clear proc
 330  0000              #line 330 "C:\HT-3000\UC_F5660\UC_F5660_main.c"
 330  0000  1F00     E  	clr rb
 330  0001  1F00     E  	clr rc
 330  0002              _L82:
 330  0002  340A        	clr c
 330  0003  1A00     E  	rlca rb
 330  0004  0080     E  	mov rd,a
 330  0005  1A00     E  	rlca rc
 330  0006  0080     E  	mov re,a
 332  0007              #line 332 "C:\HT-3000\UC_F5660\UC_F5660_main.c"
"File: UC_F5660_main.c  Assembler  Version HGASM0202      Page 34

 332  0007  0F00     R  	mov a,low offset _display_Buffer
 332  0008  0300     E  	add a,rd
 332  0009  0083        	mov mp,a
 332  000A  0F00     R  	mov a,high offset _display_Buffer
 332  000B  1300     E  	adc a,re
 332  000C  0084        	mov sbp,a
 332  000D  1F02        	clr ir
 332  000E  1483        	inc mp
 332  000F  1F02        	clr ir
 330  0010              #line 330 "C:\HT-3000\UC_F5660\UC_F5660_main.c"
 330  0010  1480     E  	inc rb
 330  0011  3D0A        	sz z
 330  0012  1480     E  	inc rc
 330  0013  0700     E  	mov a,rb
 330  0014  0C08        	xor a,8
 330  0015  0500     E  	or a,rc
 330  0016  390A        	snz z
 330  0017  2800     R  	jmp _L82
 335  0018              #line 335 "C:\HT-3000\UC_F5660\UC_F5660_main.c"
 335  0018              	fcall _show
 335  001F  0003        	ret
 335  0020              _HT16K33_LED_RAM_Clear endp
 335  0020              #line 335 "C:\HT-3000\UC_F5660\UC_F5660_main.c"
 335  0020              #pragma debug scope 1 1
 335  0020              public _UC_HT16K33
 335  0020              #pragma debug scope 11 1
 100  0020              #line 100 "C:\HT-3000\UC_F5660\UC_F5660_main.c"
 100  0000              _UC_HT16K33 .section 'code'
 100  0000              _UC_HT16K33 proc
 102  0000              #line 102 "C:\HT-3000\UC_F5660\UC_F5660_main.c"
 102  0000              	fcall _init_HT16K33
 103  0007              #line 103 "C:\HT-3000\UC_F5660\UC_F5660_main.c"
 103  0007              ;# 103 "C:\HT-3000\UC_F5660\UC_F5660_main.c" 1
 103  0007              	IF 3>263690
 103  0007              ;# 103 "C:\HT-3000\UC_F5660\UC_F5660_main.c" 1
 103  0007              	ERRMESSAGE 'the value 3of the argument exceeds the maxinum 263690'
 103  0007              	ENDIF
 103  0007              ;# 103 "C:\HT-3000\UC_F5660\UC_F5660_main.c" 1
 103  0007              	IF 3<0
 103  0007              ;# 103 "C:\HT-3000\UC_F5660\UC_F5660_main.c" 1
 103  0007              	ERRMESSAGE 'the value 3 of the argument exceeds the mininum 0'
 103  0007              	ENDIF
 103  0007              ;# 103 "C:\HT-3000\UC_F5660\UC_F5660_main.c" 1
 103  0007              	IF 3==0
 103  0007              ;# 103 "C:\HT-3000\UC_F5660\UC_F5660_main.c" 1
 103  0007              	JMP $
 103  0007              	ENDIF
 103  0007              ;# 103 "C:\HT-3000\UC_F5660\UC_F5660_main.c" 1
 103  0007              	IF (3>=1) AND (3<( 4 + __PBP__ * 2))
 103  0007              ;# 103 "C:\HT-3000\UC_F5660\UC_F5660_main.c" 1
 103  0007  0000        	NOP
 103  0008              	ENDIF
 103  0008              ;# 103 "C:\HT-3000\UC_F5660\UC_F5660_main.c" 1
 103  0008              	IF (3>=2) AND (3<( 4 + __PBP__ * 2))
 103  0008              ;# 103 "C:\HT-3000\UC_F5660\UC_F5660_main.c" 1
 103  0008  0000        	NOP
 103  0009              	ENDIF
 103  0009              ;# 103 "C:\HT-3000\UC_F5660\UC_F5660_main.c" 1
 103  0009              	IF (3>=3) AND (3<( 4 + __PBP__ * 2))
 103  0009              ;# 103 "C:\HT-3000\UC_F5660\UC_F5660_main.c" 1
"File: UC_F5660_main.c  Assembler  Version HGASM0202      Page 35

 103  0009  0000        	NOP
 103  000A              	ENDIF
 103  000A              ;# 103 "C:\HT-3000\UC_F5660\UC_F5660_main.c" 1
 103  000A              	IF (3>=4) AND (3<( 4 + __PBP__ * 2)) AND ( __PBP__ > 0 )
 103  000A              ;# 103 "C:\HT-3000\UC_F5660\UC_F5660_main.c" 1
 103  000A              	NOP
 103  000A              	ENDIF
 103  000A              ;# 103 "C:\HT-3000\UC_F5660\UC_F5660_main.c" 1
 103  000A              	IF (3>=5) AND (3<( 4 + __PBP__ * 2)) AND ( __PBP__ > 0 )
 103  000A              ;# 103 "C:\HT-3000\UC_F5660\UC_F5660_main.c" 1
 103  000A              	NOP
 103  000A              	ENDIF
 103  000A              ;# 103 "C:\HT-3000\UC_F5660\UC_F5660_main.c" 1
 103  000A              	IF (3>=6) AND (3<( 4 + __PBP__ * 2))  AND ( __PBP__ > 1 )
 103  000A              ;# 103 "C:\HT-3000\UC_F5660\UC_F5660_main.c" 1
 103  000A              	NOP
 103  000A              	ENDIF
 103  000A              ;# 103 "C:\HT-3000\UC_F5660\UC_F5660_main.c" 1
 103  000A              	IF (3>=7) AND (3<( 4 + __PBP__ * 2))  AND ( __PBP__ > 1 )
 103  000A              ;# 103 "C:\HT-3000\UC_F5660\UC_F5660_main.c" 1
 103  000A              	NOP
 103  000A              	ENDIF
 103  000A              ;# 103 "C:\HT-3000\UC_F5660\UC_F5660_main.c" 1
 103  000A              	IF (3>=8) AND (3<( 4 + __PBP__ * 2))  AND ( __PBP__ > 2 )
 103  000A              ;# 103 "C:\HT-3000\UC_F5660\UC_F5660_main.c" 1
 103  000A              	NOP
 103  000A              	ENDIF
 103  000A              ;# 103 "C:\HT-3000\UC_F5660\UC_F5660_main.c" 1
 103  000A              	IF (3==9)  AND ( __PBP__ > 2 )
 103  000A              ;# 103 "C:\HT-3000\UC_F5660\UC_F5660_main.c" 1
 103  000A              	NOP
 103  000A              	ENDIF
 103  000A              ;# 103 "C:\HT-3000\UC_F5660\UC_F5660_main.c" 1
 103  000A              	IF (3< ( 8 + __PBP__ * 2)) AND (3>( 3 + __PBP__ * 2))
 103  000A              ;# 103 "C:\HT-3000\UC_F5660\UC_F5660_main.c" 1
 103  000A              	fcall __DELAY3 + ( 7 + __PBP__ * 2) -3
 103  000A              	ENDIF
 103  000A              ;# 103 "C:\HT-3000\UC_F5660\UC_F5660_main.c" 1
 103  000A              	IF (3< ( 0404h + __PBP__ * 2)) AND (3>( 7 + __PBP__ * 2))
 103  000A              ;# 103 "C:\HT-3000\UC_F5660\UC_F5660_main.c" 1
 103  000A              	MOV A,(3-( 4 + __PBP__ * 2))/4
 103  000A              ;# 103 "C:\HT-3000\UC_F5660\UC_F5660_main.c" 1
 103  000A              	fcall __DELAYX3 + 3 -((3-( 4 + __PBP__ * 2)) MOD 4) 
 103  000A              	ENDIF
 103  000A              ;# 103 "C:\HT-3000\UC_F5660\UC_F5660_main.c" 1
 103  000A              	IF (3< ( 040bh + __PBP__ * 2)) AND (3> ( 0403h + __PBP__ * 2))
 103  000A              ;# 103 "C:\HT-3000\UC_F5660\UC_F5660_main.c" 1
 103  000A              	MOV A,0 
 103  000A              ;# 103 "C:\HT-3000\UC_F5660\UC_F5660_main.c" 1
 103  000A              	fcall __DELAYX6 + ( 040ah + __PBP__ * 2) -3
 103  000A              	ENDIF
 103  000A              ;# 103 "C:\HT-3000\UC_F5660\UC_F5660_main.c" 1
 103  000A              	IF (3 >= ( 040bh + __PBP__ * 2)) AND ((((3-( 9 + __PBP__ * 2))%0402h)/4+1)>256)
 103  000A              ;# 103 "C:\HT-3000\UC_F5660\UC_F5660_main.c" 1
 103  000A              	MOV A,(3-( 9 + __PBP__ * 2))/0402h
 103  000A              ;# 103 "C:\HT-3000\UC_F5660\UC_F5660_main.c" 1
 103  000A              	MOV _builtin_holtek_delay_2,A
 103  000A              ;# 103 "C:\HT-3000\UC_F5660\UC_F5660_main.c" 1
 103  000A              	MOV A,0
 103  000A              ;# 103 "C:\HT-3000\UC_F5660\UC_F5660_main.c" 1
"File: UC_F5660_main.c  Assembler  Version HGASM0202      Page 36

 103  000A              	fcall __DELAYY5 +5- (((3-( 9 + __PBP__ * 2))%0402h)%6) 
 103  000A              	ENDIF
 103  000A              ;# 103 "C:\HT-3000\UC_F5660\UC_F5660_main.c" 1
 103  000A              	IF (3 >= ( 040bh + __PBP__ * 2)) AND ((((3-( 9 + __PBP__ * 2))%0402h)/4+1)<=256)
 103  000A              ;# 103 "C:\HT-3000\UC_F5660\UC_F5660_main.c" 1
 103  000A              	MOV A,(3-( 9 + __PBP__ * 2))/0402h
 103  000A              ;# 103 "C:\HT-3000\UC_F5660\UC_F5660_main.c" 1
 103  000A              	MOV _builtin_holtek_delay_2,A
 103  000A              ;# 103 "C:\HT-3000\UC_F5660\UC_F5660_main.c" 1
 103  000A              	MOV A,((3-( 9 + __PBP__ * 2))%0402h)/4+1
 103  000A              ;# 103 "C:\HT-3000\UC_F5660\UC_F5660_main.c" 1
 103  000A              	fcall __DELAYY3 +3-(((3-( 9 + __PBP__ * 2))%0402h)%4) 
 103  000A              	ENDIF
 104  000A              #line 104 "C:\HT-3000\UC_F5660\UC_F5660_main.c"
 104  000A              	fcall _HT16K33_LED_RAM_Clear
 105  0011              #line 105 "C:\HT-3000\UC_F5660\UC_F5660_main.c"
 105  0011              	fcall _LED_all_TURN_ON
 105  0018  0003        	ret
 105  0019              _UC_HT16K33 endp
 105  0019              #line 105 "C:\HT-3000\UC_F5660\UC_F5660_main.c"
 105  0019              #pragma debug scope 1 1
 105  0019              public _displayON
 105  0019              #pragma debug scope 12 1
 403  0019              #line 403 "C:\HT-3000\UC_F5660\UC_F5660_main.c"
 403  0000              _displayON .section 'code'
 403  0000              _displayON proc
 404  0000              #line 404 "C:\HT-3000\UC_F5660\UC_F5660_main.c"
 404  0000  0F05        	mov a,5
 404  0001  0080     R  	mov _CheckAddressCnt[0],a
 404  0002              _L85:
 406  0002              #line 406 "C:\HT-3000\UC_F5660\UC_F5660_main.c"
 406  0002  1E00     R  	snz _CheckAddressCnt[0]
 406  0003  2800     R  	jmp _L88
 409  0004              #line 409 "C:\HT-3000\UC_F5660\UC_F5660_main.c"
 409  0004              	fcall _i2c_start
 410  000B              #line 410 "C:\HT-3000\UC_F5660\UC_F5660_main.c"
 410  000B  0FE0        	mov a,224
 410  000C              	fcall _i2c_write
 411  0013              #line 411 "C:\HT-3000\UC_F5660\UC_F5660_main.c"
 411  0013              	fcall _i2c_read_ACK
 411  001A  0080     E  	mov ra,a
 411  001B  1080     E  	sz ra
 411  001C  2800     R  	jmp _L86
 414  001D              #line 414 "C:\HT-3000\UC_F5660\UC_F5660_main.c"
 414  001D  0F81        	mov a,129
 414  001E              	fcall _i2c_write
 415  0025              #line 415 "C:\HT-3000\UC_F5660\UC_F5660_main.c"
 415  0025              	fcall _i2c_read_ACK
 415  002C  0080     E  	mov ra,a
 415  002D  1080     E  	sz ra
 415  002E  2800     R  	jmp _L86
 417  002F              #line 417 "C:\HT-3000\UC_F5660\UC_F5660_main.c"
 417  002F              	fcall _i2c_stop
 418  0036              #line 418 "C:\HT-3000\UC_F5660\UC_F5660_main.c"
 418  0036  2800     R  	jmp _L88
 418  0037              _L86:
 427  0037              #line 427 "C:\HT-3000\UC_F5660\UC_F5660_main.c"
 427  0037              	fcall _i2c_stop
 428  003E              #line 428 "C:\HT-3000\UC_F5660\UC_F5660_main.c"
 428  003E              ;# 428 "C:\HT-3000\UC_F5660\UC_F5660_main.c" 1
"File: UC_F5660_main.c  Assembler  Version HGASM0202      Page 37

 428  003E              	IF 10>263690
 428  003E              ;# 428 "C:\HT-3000\UC_F5660\UC_F5660_main.c" 1
 428  003E              	ERRMESSAGE 'the value 10of the argument exceeds the maxinum 263690'
 428  003E              	ENDIF
 428  003E              ;# 428 "C:\HT-3000\UC_F5660\UC_F5660_main.c" 1
 428  003E              	IF 10<0
 428  003E              ;# 428 "C:\HT-3000\UC_F5660\UC_F5660_main.c" 1
 428  003E              	ERRMESSAGE 'the value 10 of the argument exceeds the mininum 0'
 428  003E              	ENDIF
 428  003E              ;# 428 "C:\HT-3000\UC_F5660\UC_F5660_main.c" 1
 428  003E              	IF 10==0
 428  003E              ;# 428 "C:\HT-3000\UC_F5660\UC_F5660_main.c" 1
 428  003E              	JMP $
 428  003E              	ENDIF
 428  003E              ;# 428 "C:\HT-3000\UC_F5660\UC_F5660_main.c" 1
 428  003E              	IF (10>=1) AND (10<( 4 + __PBP__ * 2))
 428  003E              ;# 428 "C:\HT-3000\UC_F5660\UC_F5660_main.c" 1
 428  003E              	NOP
 428  003E              	ENDIF
 428  003E              ;# 428 "C:\HT-3000\UC_F5660\UC_F5660_main.c" 1
 428  003E              	IF (10>=2) AND (10<( 4 + __PBP__ * 2))
 428  003E              ;# 428 "C:\HT-3000\UC_F5660\UC_F5660_main.c" 1
 428  003E              	NOP
 428  003E              	ENDIF
 428  003E              ;# 428 "C:\HT-3000\UC_F5660\UC_F5660_main.c" 1
 428  003E              	IF (10>=3) AND (10<( 4 + __PBP__ * 2))
 428  003E              ;# 428 "C:\HT-3000\UC_F5660\UC_F5660_main.c" 1
 428  003E              	NOP
 428  003E              	ENDIF
 428  003E              ;# 428 "C:\HT-3000\UC_F5660\UC_F5660_main.c" 1
 428  003E              	IF (10>=4) AND (10<( 4 + __PBP__ * 2)) AND ( __PBP__ > 0 )
 428  003E              ;# 428 "C:\HT-3000\UC_F5660\UC_F5660_main.c" 1
 428  003E              	NOP
 428  003E              	ENDIF
 428  003E              ;# 428 "C:\HT-3000\UC_F5660\UC_F5660_main.c" 1
 428  003E              	IF (10>=5) AND (10<( 4 + __PBP__ * 2)) AND ( __PBP__ > 0 )
 428  003E              ;# 428 "C:\HT-3000\UC_F5660\UC_F5660_main.c" 1
 428  003E              	NOP
 428  003E              	ENDIF
 428  003E              ;# 428 "C:\HT-3000\UC_F5660\UC_F5660_main.c" 1
 428  003E              	IF (10>=6) AND (10<( 4 + __PBP__ * 2))  AND ( __PBP__ > 1 )
 428  003E              ;# 428 "C:\HT-3000\UC_F5660\UC_F5660_main.c" 1
 428  003E              	NOP
 428  003E              	ENDIF
 428  003E              ;# 428 "C:\HT-3000\UC_F5660\UC_F5660_main.c" 1
 428  003E              	IF (10>=7) AND (10<( 4 + __PBP__ * 2))  AND ( __PBP__ > 1 )
 428  003E              ;# 428 "C:\HT-3000\UC_F5660\UC_F5660_main.c" 1
 428  003E              	NOP
 428  003E              	ENDIF
 428  003E              ;# 428 "C:\HT-3000\UC_F5660\UC_F5660_main.c" 1
 428  003E              	IF (10>=8) AND (10<( 4 + __PBP__ * 2))  AND ( __PBP__ > 2 )
 428  003E              ;# 428 "C:\HT-3000\UC_F5660\UC_F5660_main.c" 1
 428  003E              	NOP
 428  003E              	ENDIF
 428  003E              ;# 428 "C:\HT-3000\UC_F5660\UC_F5660_main.c" 1
 428  003E              	IF (10==9)  AND ( __PBP__ > 2 )
 428  003E              ;# 428 "C:\HT-3000\UC_F5660\UC_F5660_main.c" 1
 428  003E              	NOP
 428  003E              	ENDIF
 428  003E              ;# 428 "C:\HT-3000\UC_F5660\UC_F5660_main.c" 1
"File: UC_F5660_main.c  Assembler  Version HGASM0202      Page 38

 428  003E              	IF (10< ( 8 + __PBP__ * 2)) AND (10>( 3 + __PBP__ * 2))
 428  003E              ;# 428 "C:\HT-3000\UC_F5660\UC_F5660_main.c" 1
 428  003E              	fcall __DELAY3 + ( 7 + __PBP__ * 2) -10
 428  003E              	ENDIF
 428  003E              ;# 428 "C:\HT-3000\UC_F5660\UC_F5660_main.c" 1
 428  003E              	IF (10< ( 0404h + __PBP__ * 2)) AND (10>( 7 + __PBP__ * 2))
 428  003E              ;# 428 "C:\HT-3000\UC_F5660\UC_F5660_main.c" 1
 428  003E  0F01        	MOV A,(10-( 4 + __PBP__ * 2))/4
 428  003F              ;# 428 "C:\HT-3000\UC_F5660\UC_F5660_main.c" 1
 428  003F              	fcall __DELAYX3 + 3 -((10-( 4 + __PBP__ * 2)) MOD 4) 
 428  0046              	ENDIF
 428  0046              ;# 428 "C:\HT-3000\UC_F5660\UC_F5660_main.c" 1
 428  0046              	IF (10< ( 040bh + __PBP__ * 2)) AND (10> ( 0403h + __PBP__ * 2))
 428  0046              ;# 428 "C:\HT-3000\UC_F5660\UC_F5660_main.c" 1
 428  0046              	MOV A,0 
 428  0046              ;# 428 "C:\HT-3000\UC_F5660\UC_F5660_main.c" 1
 428  0046              	fcall __DELAYX6 + ( 040ah + __PBP__ * 2) -10
 428  0046              	ENDIF
 428  0046              ;# 428 "C:\HT-3000\UC_F5660\UC_F5660_main.c" 1
 428  0046              	IF (10 >= ( 040bh + __PBP__ * 2)) AND ((((10-( 9 + __PBP__ * 2))%0402h)/4+1)>256)
 428  0046              ;# 428 "C:\HT-3000\UC_F5660\UC_F5660_main.c" 1
 428  0046              	MOV A,(10-( 9 + __PBP__ * 2))/0402h
 428  0046              ;# 428 "C:\HT-3000\UC_F5660\UC_F5660_main.c" 1
 428  0046              	MOV _builtin_holtek_delay_2,A
 428  0046              ;# 428 "C:\HT-3000\UC_F5660\UC_F5660_main.c" 1
 428  0046              	MOV A,0
 428  0046              ;# 428 "C:\HT-3000\UC_F5660\UC_F5660_main.c" 1
 428  0046              	fcall __DELAYY5 +5- (((10-( 9 + __PBP__ * 2))%0402h)%6) 
 428  0046              	ENDIF
 428  0046              ;# 428 "C:\HT-3000\UC_F5660\UC_F5660_main.c" 1
 428  0046              	IF (10 >= ( 040bh + __PBP__ * 2)) AND ((((10-( 9 + __PBP__ * 2))%0402h)/4+1)<=256)
 428  0046              ;# 428 "C:\HT-3000\UC_F5660\UC_F5660_main.c" 1
 428  0046              	MOV A,(10-( 9 + __PBP__ * 2))/0402h
 428  0046              ;# 428 "C:\HT-3000\UC_F5660\UC_F5660_main.c" 1
 428  0046              	MOV _builtin_holtek_delay_2,A
 428  0046              ;# 428 "C:\HT-3000\UC_F5660\UC_F5660_main.c" 1
 428  0046              	MOV A,((10-( 9 + __PBP__ * 2))%0402h)/4+1
 428  0046              ;# 428 "C:\HT-3000\UC_F5660\UC_F5660_main.c" 1
 428  0046              	fcall __DELAYY3 +3-(((10-( 9 + __PBP__ * 2))%0402h)%4) 
 428  0046              	ENDIF
 429  0046              #line 429 "C:\HT-3000\UC_F5660\UC_F5660_main.c"
 429  0046  1580     R  	dec _CheckAddressCnt[0]
 430  0047              #line 430 "C:\HT-3000\UC_F5660\UC_F5660_main.c"
 430  0047  2800     R  	jmp _L85
 430  0048              _L88:
 434  0048              #line 434 "C:\HT-3000\UC_F5660\UC_F5660_main.c"
 434  0048              ;# 434 "C:\HT-3000\UC_F5660\UC_F5660_main.c" 1
 434  0048              	IF 10>263690
 434  0048              ;# 434 "C:\HT-3000\UC_F5660\UC_F5660_main.c" 1
 434  0048              	ERRMESSAGE 'the value 10of the argument exceeds the maxinum 263690'
 434  0048              	ENDIF
 434  0048              ;# 434 "C:\HT-3000\UC_F5660\UC_F5660_main.c" 1
 434  0048              	IF 10<0
 434  0048              ;# 434 "C:\HT-3000\UC_F5660\UC_F5660_main.c" 1
 434  0048              	ERRMESSAGE 'the value 10 of the argument exceeds the mininum 0'
 434  0048              	ENDIF
 434  0048              ;# 434 "C:\HT-3000\UC_F5660\UC_F5660_main.c" 1
 434  0048              	IF 10==0
 434  0048              ;# 434 "C:\HT-3000\UC_F5660\UC_F5660_main.c" 1
 434  0048              	JMP $
"File: UC_F5660_main.c  Assembler  Version HGASM0202      Page 39

 434  0048              	ENDIF
 434  0048              ;# 434 "C:\HT-3000\UC_F5660\UC_F5660_main.c" 1
 434  0048              	IF (10>=1) AND (10<( 4 + __PBP__ * 2))
 434  0048              ;# 434 "C:\HT-3000\UC_F5660\UC_F5660_main.c" 1
 434  0048              	NOP
 434  0048              	ENDIF
 434  0048              ;# 434 "C:\HT-3000\UC_F5660\UC_F5660_main.c" 1
 434  0048              	IF (10>=2) AND (10<( 4 + __PBP__ * 2))
 434  0048              ;# 434 "C:\HT-3000\UC_F5660\UC_F5660_main.c" 1
 434  0048              	NOP
 434  0048              	ENDIF
 434  0048              ;# 434 "C:\HT-3000\UC_F5660\UC_F5660_main.c" 1
 434  0048              	IF (10>=3) AND (10<( 4 + __PBP__ * 2))
 434  0048              ;# 434 "C:\HT-3000\UC_F5660\UC_F5660_main.c" 1
 434  0048              	NOP
 434  0048              	ENDIF
 434  0048              ;# 434 "C:\HT-3000\UC_F5660\UC_F5660_main.c" 1
 434  0048              	IF (10>=4) AND (10<( 4 + __PBP__ * 2)) AND ( __PBP__ > 0 )
 434  0048              ;# 434 "C:\HT-3000\UC_F5660\UC_F5660_main.c" 1
 434  0048              	NOP
 434  0048              	ENDIF
 434  0048              ;# 434 "C:\HT-3000\UC_F5660\UC_F5660_main.c" 1
 434  0048              	IF (10>=5) AND (10<( 4 + __PBP__ * 2)) AND ( __PBP__ > 0 )
 434  0048              ;# 434 "C:\HT-3000\UC_F5660\UC_F5660_main.c" 1
 434  0048              	NOP
 434  0048              	ENDIF
 434  0048              ;# 434 "C:\HT-3000\UC_F5660\UC_F5660_main.c" 1
 434  0048              	IF (10>=6) AND (10<( 4 + __PBP__ * 2))  AND ( __PBP__ > 1 )
 434  0048              ;# 434 "C:\HT-3000\UC_F5660\UC_F5660_main.c" 1
 434  0048              	NOP
 434  0048              	ENDIF
 434  0048              ;# 434 "C:\HT-3000\UC_F5660\UC_F5660_main.c" 1
 434  0048              	IF (10>=7) AND (10<( 4 + __PBP__ * 2))  AND ( __PBP__ > 1 )
 434  0048              ;# 434 "C:\HT-3000\UC_F5660\UC_F5660_main.c" 1
 434  0048              	NOP
 434  0048              	ENDIF
 434  0048              ;# 434 "C:\HT-3000\UC_F5660\UC_F5660_main.c" 1
 434  0048              	IF (10>=8) AND (10<( 4 + __PBP__ * 2))  AND ( __PBP__ > 2 )
 434  0048              ;# 434 "C:\HT-3000\UC_F5660\UC_F5660_main.c" 1
 434  0048              	NOP
 434  0048              	ENDIF
 434  0048              ;# 434 "C:\HT-3000\UC_F5660\UC_F5660_main.c" 1
 434  0048              	IF (10==9)  AND ( __PBP__ > 2 )
 434  0048              ;# 434 "C:\HT-3000\UC_F5660\UC_F5660_main.c" 1
 434  0048              	NOP
 434  0048              	ENDIF
 434  0048              ;# 434 "C:\HT-3000\UC_F5660\UC_F5660_main.c" 1
 434  0048              	IF (10< ( 8 + __PBP__ * 2)) AND (10>( 3 + __PBP__ * 2))
 434  0048              ;# 434 "C:\HT-3000\UC_F5660\UC_F5660_main.c" 1
 434  0048              	fcall __DELAY3 + ( 7 + __PBP__ * 2) -10
 434  0048              	ENDIF
 434  0048              ;# 434 "C:\HT-3000\UC_F5660\UC_F5660_main.c" 1
 434  0048              	IF (10< ( 0404h + __PBP__ * 2)) AND (10>( 7 + __PBP__ * 2))
 434  0048              ;# 434 "C:\HT-3000\UC_F5660\UC_F5660_main.c" 1
 434  0048  0F01        	MOV A,(10-( 4 + __PBP__ * 2))/4
 434  0049              ;# 434 "C:\HT-3000\UC_F5660\UC_F5660_main.c" 1
 434  0049              	fcall __DELAYX3 + 3 -((10-( 4 + __PBP__ * 2)) MOD 4) 
 434  0050              	ENDIF
 434  0050              ;# 434 "C:\HT-3000\UC_F5660\UC_F5660_main.c" 1
 434  0050              	IF (10< ( 040bh + __PBP__ * 2)) AND (10> ( 0403h + __PBP__ * 2))
"File: UC_F5660_main.c  Assembler  Version HGASM0202      Page 40

 434  0050              ;# 434 "C:\HT-3000\UC_F5660\UC_F5660_main.c" 1
 434  0050              	MOV A,0 
 434  0050              ;# 434 "C:\HT-3000\UC_F5660\UC_F5660_main.c" 1
 434  0050              	fcall __DELAYX6 + ( 040ah + __PBP__ * 2) -10
 434  0050              	ENDIF
 434  0050              ;# 434 "C:\HT-3000\UC_F5660\UC_F5660_main.c" 1
 434  0050              	IF (10 >= ( 040bh + __PBP__ * 2)) AND ((((10-( 9 + __PBP__ * 2))%0402h)/4+1)>256)
 434  0050              ;# 434 "C:\HT-3000\UC_F5660\UC_F5660_main.c" 1
 434  0050              	MOV A,(10-( 9 + __PBP__ * 2))/0402h
 434  0050              ;# 434 "C:\HT-3000\UC_F5660\UC_F5660_main.c" 1
 434  0050              	MOV _builtin_holtek_delay_2,A
 434  0050              ;# 434 "C:\HT-3000\UC_F5660\UC_F5660_main.c" 1
 434  0050              	MOV A,0
 434  0050              ;# 434 "C:\HT-3000\UC_F5660\UC_F5660_main.c" 1
 434  0050              	fcall __DELAYY5 +5- (((10-( 9 + __PBP__ * 2))%0402h)%6) 
 434  0050              	ENDIF
 434  0050              ;# 434 "C:\HT-3000\UC_F5660\UC_F5660_main.c" 1
 434  0050              	IF (10 >= ( 040bh + __PBP__ * 2)) AND ((((10-( 9 + __PBP__ * 2))%0402h)/4+1)<=256)
 434  0050              ;# 434 "C:\HT-3000\UC_F5660\UC_F5660_main.c" 1
 434  0050              	MOV A,(10-( 9 + __PBP__ * 2))/0402h
 434  0050              ;# 434 "C:\HT-3000\UC_F5660\UC_F5660_main.c" 1
 434  0050              	MOV _builtin_holtek_delay_2,A
 434  0050              ;# 434 "C:\HT-3000\UC_F5660\UC_F5660_main.c" 1
 434  0050              	MOV A,((10-( 9 + __PBP__ * 2))%0402h)/4+1
 434  0050              ;# 434 "C:\HT-3000\UC_F5660\UC_F5660_main.c" 1
 434  0050              	fcall __DELAYY3 +3-(((10-( 9 + __PBP__ * 2))%0402h)%4) 
 434  0050              	ENDIF
 434  0050  0003        	ret
 434  0051              _displayON endp
 434  0051              #line 434 "C:\HT-3000\UC_F5660\UC_F5660_main.c"
 434  0051              #pragma debug scope 1 1
 434  0051              public _displayOFF
 434  0051              #pragma debug scope 13 1
 439  0051              #line 439 "C:\HT-3000\UC_F5660\UC_F5660_main.c"
 439  0000              _displayOFF .section 'code'
 439  0000              _displayOFF proc
 440  0000              #line 440 "C:\HT-3000\UC_F5660\UC_F5660_main.c"
 440  0000  0F05        	mov a,5
 440  0001  0080     R  	mov _CheckAddressCnt[0],a
 440  0002              _L92:
 442  0002              #line 442 "C:\HT-3000\UC_F5660\UC_F5660_main.c"
 442  0002  1E00     R  	snz _CheckAddressCnt[0]
 442  0003  2800     R  	jmp _L95
 445  0004              #line 445 "C:\HT-3000\UC_F5660\UC_F5660_main.c"
 445  0004              	fcall _i2c_start
 446  000B              #line 446 "C:\HT-3000\UC_F5660\UC_F5660_main.c"
 446  000B  0FE0        	mov a,224
 446  000C              	fcall _i2c_write
 447  0013              #line 447 "C:\HT-3000\UC_F5660\UC_F5660_main.c"
 447  0013              	fcall _i2c_read_ACK
 447  001A  0080     E  	mov ra,a
 447  001B  1080     E  	sz ra
 447  001C  2800     R  	jmp _L93
 450  001D              #line 450 "C:\HT-3000\UC_F5660\UC_F5660_main.c"
 450  001D  0F80        	mov a,128
 450  001E              	fcall _i2c_write
 451  0025              #line 451 "C:\HT-3000\UC_F5660\UC_F5660_main.c"
 451  0025              	fcall _i2c_read_ACK
 451  002C  0080     E  	mov ra,a
 451  002D  1080     E  	sz ra
"File: UC_F5660_main.c  Assembler  Version HGASM0202      Page 41

 451  002E  2800     R  	jmp _L93
 453  002F              #line 453 "C:\HT-3000\UC_F5660\UC_F5660_main.c"
 453  002F              	fcall _i2c_stop
 454  0036              #line 454 "C:\HT-3000\UC_F5660\UC_F5660_main.c"
 454  0036  2800     R  	jmp _L95
 454  0037              _L93:
 463  0037              #line 463 "C:\HT-3000\UC_F5660\UC_F5660_main.c"
 463  0037              	fcall _i2c_stop
 464  003E              #line 464 "C:\HT-3000\UC_F5660\UC_F5660_main.c"
 464  003E              ;# 464 "C:\HT-3000\UC_F5660\UC_F5660_main.c" 1
 464  003E              	IF 10>263690
 464  003E              ;# 464 "C:\HT-3000\UC_F5660\UC_F5660_main.c" 1
 464  003E              	ERRMESSAGE 'the value 10of the argument exceeds the maxinum 263690'
 464  003E              	ENDIF
 464  003E              ;# 464 "C:\HT-3000\UC_F5660\UC_F5660_main.c" 1
 464  003E              	IF 10<0
 464  003E              ;# 464 "C:\HT-3000\UC_F5660\UC_F5660_main.c" 1
 464  003E              	ERRMESSAGE 'the value 10 of the argument exceeds the mininum 0'
 464  003E              	ENDIF
 464  003E              ;# 464 "C:\HT-3000\UC_F5660\UC_F5660_main.c" 1
 464  003E              	IF 10==0
 464  003E              ;# 464 "C:\HT-3000\UC_F5660\UC_F5660_main.c" 1
 464  003E              	JMP $
 464  003E              	ENDIF
 464  003E              ;# 464 "C:\HT-3000\UC_F5660\UC_F5660_main.c" 1
 464  003E              	IF (10>=1) AND (10<( 4 + __PBP__ * 2))
 464  003E              ;# 464 "C:\HT-3000\UC_F5660\UC_F5660_main.c" 1
 464  003E              	NOP
 464  003E              	ENDIF
 464  003E              ;# 464 "C:\HT-3000\UC_F5660\UC_F5660_main.c" 1
 464  003E              	IF (10>=2) AND (10<( 4 + __PBP__ * 2))
 464  003E              ;# 464 "C:\HT-3000\UC_F5660\UC_F5660_main.c" 1
 464  003E              	NOP
 464  003E              	ENDIF
 464  003E              ;# 464 "C:\HT-3000\UC_F5660\UC_F5660_main.c" 1
 464  003E              	IF (10>=3) AND (10<( 4 + __PBP__ * 2))
 464  003E              ;# 464 "C:\HT-3000\UC_F5660\UC_F5660_main.c" 1
 464  003E              	NOP
 464  003E              	ENDIF
 464  003E              ;# 464 "C:\HT-3000\UC_F5660\UC_F5660_main.c" 1
 464  003E              	IF (10>=4) AND (10<( 4 + __PBP__ * 2)) AND ( __PBP__ > 0 )
 464  003E              ;# 464 "C:\HT-3000\UC_F5660\UC_F5660_main.c" 1
 464  003E              	NOP
 464  003E              	ENDIF
 464  003E              ;# 464 "C:\HT-3000\UC_F5660\UC_F5660_main.c" 1
 464  003E              	IF (10>=5) AND (10<( 4 + __PBP__ * 2)) AND ( __PBP__ > 0 )
 464  003E              ;# 464 "C:\HT-3000\UC_F5660\UC_F5660_main.c" 1
 464  003E              	NOP
 464  003E              	ENDIF
 464  003E              ;# 464 "C:\HT-3000\UC_F5660\UC_F5660_main.c" 1
 464  003E              	IF (10>=6) AND (10<( 4 + __PBP__ * 2))  AND ( __PBP__ > 1 )
 464  003E              ;# 464 "C:\HT-3000\UC_F5660\UC_F5660_main.c" 1
 464  003E              	NOP
 464  003E              	ENDIF
 464  003E              ;# 464 "C:\HT-3000\UC_F5660\UC_F5660_main.c" 1
 464  003E              	IF (10>=7) AND (10<( 4 + __PBP__ * 2))  AND ( __PBP__ > 1 )
 464  003E              ;# 464 "C:\HT-3000\UC_F5660\UC_F5660_main.c" 1
 464  003E              	NOP
 464  003E              	ENDIF
 464  003E              ;# 464 "C:\HT-3000\UC_F5660\UC_F5660_main.c" 1
"File: UC_F5660_main.c  Assembler  Version HGASM0202      Page 42

 464  003E              	IF (10>=8) AND (10<( 4 + __PBP__ * 2))  AND ( __PBP__ > 2 )
 464  003E              ;# 464 "C:\HT-3000\UC_F5660\UC_F5660_main.c" 1
 464  003E              	NOP
 464  003E              	ENDIF
 464  003E              ;# 464 "C:\HT-3000\UC_F5660\UC_F5660_main.c" 1
 464  003E              	IF (10==9)  AND ( __PBP__ > 2 )
 464  003E              ;# 464 "C:\HT-3000\UC_F5660\UC_F5660_main.c" 1
 464  003E              	NOP
 464  003E              	ENDIF
 464  003E              ;# 464 "C:\HT-3000\UC_F5660\UC_F5660_main.c" 1
 464  003E              	IF (10< ( 8 + __PBP__ * 2)) AND (10>( 3 + __PBP__ * 2))
 464  003E              ;# 464 "C:\HT-3000\UC_F5660\UC_F5660_main.c" 1
 464  003E              	fcall __DELAY3 + ( 7 + __PBP__ * 2) -10
 464  003E              	ENDIF
 464  003E              ;# 464 "C:\HT-3000\UC_F5660\UC_F5660_main.c" 1
 464  003E              	IF (10< ( 0404h + __PBP__ * 2)) AND (10>( 7 + __PBP__ * 2))
 464  003E              ;# 464 "C:\HT-3000\UC_F5660\UC_F5660_main.c" 1
 464  003E  0F01        	MOV A,(10-( 4 + __PBP__ * 2))/4
 464  003F              ;# 464 "C:\HT-3000\UC_F5660\UC_F5660_main.c" 1
 464  003F              	fcall __DELAYX3 + 3 -((10-( 4 + __PBP__ * 2)) MOD 4) 
 464  0046              	ENDIF
 464  0046              ;# 464 "C:\HT-3000\UC_F5660\UC_F5660_main.c" 1
 464  0046              	IF (10< ( 040bh + __PBP__ * 2)) AND (10> ( 0403h + __PBP__ * 2))
 464  0046              ;# 464 "C:\HT-3000\UC_F5660\UC_F5660_main.c" 1
 464  0046              	MOV A,0 
 464  0046              ;# 464 "C:\HT-3000\UC_F5660\UC_F5660_main.c" 1
 464  0046              	fcall __DELAYX6 + ( 040ah + __PBP__ * 2) -10
 464  0046              	ENDIF
 464  0046              ;# 464 "C:\HT-3000\UC_F5660\UC_F5660_main.c" 1
 464  0046              	IF (10 >= ( 040bh + __PBP__ * 2)) AND ((((10-( 9 + __PBP__ * 2))%0402h)/4+1)>256)
 464  0046              ;# 464 "C:\HT-3000\UC_F5660\UC_F5660_main.c" 1
 464  0046              	MOV A,(10-( 9 + __PBP__ * 2))/0402h
 464  0046              ;# 464 "C:\HT-3000\UC_F5660\UC_F5660_main.c" 1
 464  0046              	MOV _builtin_holtek_delay_2,A
 464  0046              ;# 464 "C:\HT-3000\UC_F5660\UC_F5660_main.c" 1
 464  0046              	MOV A,0
 464  0046              ;# 464 "C:\HT-3000\UC_F5660\UC_F5660_main.c" 1
 464  0046              	fcall __DELAYY5 +5- (((10-( 9 + __PBP__ * 2))%0402h)%6) 
 464  0046              	ENDIF
 464  0046              ;# 464 "C:\HT-3000\UC_F5660\UC_F5660_main.c" 1
 464  0046              	IF (10 >= ( 040bh + __PBP__ * 2)) AND ((((10-( 9 + __PBP__ * 2))%0402h)/4+1)<=256)
 464  0046              ;# 464 "C:\HT-3000\UC_F5660\UC_F5660_main.c" 1
 464  0046              	MOV A,(10-( 9 + __PBP__ * 2))/0402h
 464  0046              ;# 464 "C:\HT-3000\UC_F5660\UC_F5660_main.c" 1
 464  0046              	MOV _builtin_holtek_delay_2,A
 464  0046              ;# 464 "C:\HT-3000\UC_F5660\UC_F5660_main.c" 1
 464  0046              	MOV A,((10-( 9 + __PBP__ * 2))%0402h)/4+1
 464  0046              ;# 464 "C:\HT-3000\UC_F5660\UC_F5660_main.c" 1
 464  0046              	fcall __DELAYY3 +3-(((10-( 9 + __PBP__ * 2))%0402h)%4) 
 464  0046              	ENDIF
 465  0046              #line 465 "C:\HT-3000\UC_F5660\UC_F5660_main.c"
 465  0046  1580     R  	dec _CheckAddressCnt[0]
 466  0047              #line 466 "C:\HT-3000\UC_F5660\UC_F5660_main.c"
 466  0047  2800     R  	jmp _L92
 466  0048              _L95:
 470  0048              #line 470 "C:\HT-3000\UC_F5660\UC_F5660_main.c"
 470  0048              ;# 470 "C:\HT-3000\UC_F5660\UC_F5660_main.c" 1
 470  0048              	IF 10>263690
 470  0048              ;# 470 "C:\HT-3000\UC_F5660\UC_F5660_main.c" 1
 470  0048              	ERRMESSAGE 'the value 10of the argument exceeds the maxinum 263690'
"File: UC_F5660_main.c  Assembler  Version HGASM0202      Page 43

 470  0048              	ENDIF
 470  0048              ;# 470 "C:\HT-3000\UC_F5660\UC_F5660_main.c" 1
 470  0048              	IF 10<0
 470  0048              ;# 470 "C:\HT-3000\UC_F5660\UC_F5660_main.c" 1
 470  0048              	ERRMESSAGE 'the value 10 of the argument exceeds the mininum 0'
 470  0048              	ENDIF
 470  0048              ;# 470 "C:\HT-3000\UC_F5660\UC_F5660_main.c" 1
 470  0048              	IF 10==0
 470  0048              ;# 470 "C:\HT-3000\UC_F5660\UC_F5660_main.c" 1
 470  0048              	JMP $
 470  0048              	ENDIF
 470  0048              ;# 470 "C:\HT-3000\UC_F5660\UC_F5660_main.c" 1
 470  0048              	IF (10>=1) AND (10<( 4 + __PBP__ * 2))
 470  0048              ;# 470 "C:\HT-3000\UC_F5660\UC_F5660_main.c" 1
 470  0048              	NOP
 470  0048              	ENDIF
 470  0048              ;# 470 "C:\HT-3000\UC_F5660\UC_F5660_main.c" 1
 470  0048              	IF (10>=2) AND (10<( 4 + __PBP__ * 2))
 470  0048              ;# 470 "C:\HT-3000\UC_F5660\UC_F5660_main.c" 1
 470  0048              	NOP
 470  0048              	ENDIF
 470  0048              ;# 470 "C:\HT-3000\UC_F5660\UC_F5660_main.c" 1
 470  0048              	IF (10>=3) AND (10<( 4 + __PBP__ * 2))
 470  0048              ;# 470 "C:\HT-3000\UC_F5660\UC_F5660_main.c" 1
 470  0048              	NOP
 470  0048              	ENDIF
 470  0048              ;# 470 "C:\HT-3000\UC_F5660\UC_F5660_main.c" 1
 470  0048              	IF (10>=4) AND (10<( 4 + __PBP__ * 2)) AND ( __PBP__ > 0 )
 470  0048              ;# 470 "C:\HT-3000\UC_F5660\UC_F5660_main.c" 1
 470  0048              	NOP
 470  0048              	ENDIF
 470  0048              ;# 470 "C:\HT-3000\UC_F5660\UC_F5660_main.c" 1
 470  0048              	IF (10>=5) AND (10<( 4 + __PBP__ * 2)) AND ( __PBP__ > 0 )
 470  0048              ;# 470 "C:\HT-3000\UC_F5660\UC_F5660_main.c" 1
 470  0048              	NOP
 470  0048              	ENDIF
 470  0048              ;# 470 "C:\HT-3000\UC_F5660\UC_F5660_main.c" 1
 470  0048              	IF (10>=6) AND (10<( 4 + __PBP__ * 2))  AND ( __PBP__ > 1 )
 470  0048              ;# 470 "C:\HT-3000\UC_F5660\UC_F5660_main.c" 1
 470  0048              	NOP
 470  0048              	ENDIF
 470  0048              ;# 470 "C:\HT-3000\UC_F5660\UC_F5660_main.c" 1
 470  0048              	IF (10>=7) AND (10<( 4 + __PBP__ * 2))  AND ( __PBP__ > 1 )
 470  0048              ;# 470 "C:\HT-3000\UC_F5660\UC_F5660_main.c" 1
 470  0048              	NOP
 470  0048              	ENDIF
 470  0048              ;# 470 "C:\HT-3000\UC_F5660\UC_F5660_main.c" 1
 470  0048              	IF (10>=8) AND (10<( 4 + __PBP__ * 2))  AND ( __PBP__ > 2 )
 470  0048              ;# 470 "C:\HT-3000\UC_F5660\UC_F5660_main.c" 1
 470  0048              	NOP
 470  0048              	ENDIF
 470  0048              ;# 470 "C:\HT-3000\UC_F5660\UC_F5660_main.c" 1
 470  0048              	IF (10==9)  AND ( __PBP__ > 2 )
 470  0048              ;# 470 "C:\HT-3000\UC_F5660\UC_F5660_main.c" 1
 470  0048              	NOP
 470  0048              	ENDIF
 470  0048              ;# 470 "C:\HT-3000\UC_F5660\UC_F5660_main.c" 1
 470  0048              	IF (10< ( 8 + __PBP__ * 2)) AND (10>( 3 + __PBP__ * 2))
 470  0048              ;# 470 "C:\HT-3000\UC_F5660\UC_F5660_main.c" 1
 470  0048              	fcall __DELAY3 + ( 7 + __PBP__ * 2) -10
"File: UC_F5660_main.c  Assembler  Version HGASM0202      Page 44

 470  0048              	ENDIF
 470  0048              ;# 470 "C:\HT-3000\UC_F5660\UC_F5660_main.c" 1
 470  0048              	IF (10< ( 0404h + __PBP__ * 2)) AND (10>( 7 + __PBP__ * 2))
 470  0048              ;# 470 "C:\HT-3000\UC_F5660\UC_F5660_main.c" 1
 470  0048  0F01        	MOV A,(10-( 4 + __PBP__ * 2))/4
 470  0049              ;# 470 "C:\HT-3000\UC_F5660\UC_F5660_main.c" 1
 470  0049              	fcall __DELAYX3 + 3 -((10-( 4 + __PBP__ * 2)) MOD 4) 
 470  0050              	ENDIF
 470  0050              ;# 470 "C:\HT-3000\UC_F5660\UC_F5660_main.c" 1
 470  0050              	IF (10< ( 040bh + __PBP__ * 2)) AND (10> ( 0403h + __PBP__ * 2))
 470  0050              ;# 470 "C:\HT-3000\UC_F5660\UC_F5660_main.c" 1
 470  0050              	MOV A,0 
 470  0050              ;# 470 "C:\HT-3000\UC_F5660\UC_F5660_main.c" 1
 470  0050              	fcall __DELAYX6 + ( 040ah + __PBP__ * 2) -10
 470  0050              	ENDIF
 470  0050              ;# 470 "C:\HT-3000\UC_F5660\UC_F5660_main.c" 1
 470  0050              	IF (10 >= ( 040bh + __PBP__ * 2)) AND ((((10-( 9 + __PBP__ * 2))%0402h)/4+1)>256)
 470  0050              ;# 470 "C:\HT-3000\UC_F5660\UC_F5660_main.c" 1
 470  0050              	MOV A,(10-( 9 + __PBP__ * 2))/0402h
 470  0050              ;# 470 "C:\HT-3000\UC_F5660\UC_F5660_main.c" 1
 470  0050              	MOV _builtin_holtek_delay_2,A
 470  0050              ;# 470 "C:\HT-3000\UC_F5660\UC_F5660_main.c" 1
 470  0050              	MOV A,0
 470  0050              ;# 470 "C:\HT-3000\UC_F5660\UC_F5660_main.c" 1
 470  0050              	fcall __DELAYY5 +5- (((10-( 9 + __PBP__ * 2))%0402h)%6) 
 470  0050              	ENDIF
 470  0050              ;# 470 "C:\HT-3000\UC_F5660\UC_F5660_main.c" 1
 470  0050              	IF (10 >= ( 040bh + __PBP__ * 2)) AND ((((10-( 9 + __PBP__ * 2))%0402h)/4+1)<=256)
 470  0050              ;# 470 "C:\HT-3000\UC_F5660\UC_F5660_main.c" 1
 470  0050              	MOV A,(10-( 9 + __PBP__ * 2))/0402h
 470  0050              ;# 470 "C:\HT-3000\UC_F5660\UC_F5660_main.c" 1
 470  0050              	MOV _builtin_holtek_delay_2,A
 470  0050              ;# 470 "C:\HT-3000\UC_F5660\UC_F5660_main.c" 1
 470  0050              	MOV A,((10-( 9 + __PBP__ * 2))%0402h)/4+1
 470  0050              ;# 470 "C:\HT-3000\UC_F5660\UC_F5660_main.c" 1
 470  0050              	fcall __DELAYY3 +3-(((10-( 9 + __PBP__ * 2))%0402h)%4) 
 470  0050              	ENDIF
 470  0050  0003        	ret
 470  0051              _displayOFF endp
 470  0051              #line 470 "C:\HT-3000\UC_F5660\UC_F5660_main.c"
 470  0051              #pragma debug scope 1 1
 470  0051              ___wdtc equ [42]
 470  0051              ___tbc equ [39]
 470  0051              ___pcc equ [33]
 470  0051              ___pcpu equ [31]
 470  0051              public _main
 470  0051              #pragma debug scope 14 1
  38  0051              #line 38 "C:\HT-3000\UC_F5660\UC_F5660_main.c"
  38  0051              IFDEF WITH_DEFAULT_STARTUP
  38  0051              extern _main_initial0:near
  38  0051              extern _main_startup:near
  38  0051              ENDIF
  38  0051              
  38  0051              ROMBANK 0 @start
  38  0000              @start .section com_l 'code'
  38  0000              _main_startup1:
  38  0000              @start .section com_e 'code'
  38  0000  0F00     R  	mov a,bank _main
  38  0001  008B        	mov bp,a
  38  0002  2800     R  	jmp _main
"File: UC_F5660_main.c  Assembler  Version HGASM0202      Page 45

  38  0003              
  38  0000              _main .section 'code'
  38  0000              _main proc
  38  0000  0002[           local _main_2 db 2 dup(?)
            00
            ]
  38  0002              #pragma debug variable 11 14 _main_2+0 "i"
  38  0000              #pragma debug scope 15 14
  38  0000              ;begin block, line: 38.-1
  38  0000              #pragma debug scope 16 15
  38  0000              ;begin block, line: 38.-1
 491  0000              #line 491 "C:\HT-3000\UC_F5660\UC_F5660_main.c"
 491  0000  0FA8        	mov a,168
 491  0001  00AA        	mov [42],a
 491  0002              #pragma debug scope 15 14
 491  0002              #pragma debug scope 14 1
  42  0002              #line 42 "C:\HT-3000\UC_F5660\UC_F5660_main.c"
  42  0002  37A7        	clr [39].7
  43  0003              #line 43 "C:\HT-3000\UC_F5660\UC_F5660_main.c"
  43  0003              	fcall _UC_HT16K33
  44  000A              #line 44 "C:\HT-3000\UC_F5660\UC_F5660_main.c"
  44  000A  3221        	set [33].4
  45  000B              #line 45 "C:\HT-3000\UC_F5660\UC_F5660_main.c"
  45  000B  321F        	set [31].4
  46  000C              #line 46 "C:\HT-3000\UC_F5660\UC_F5660_main.c"
  46  000C  1F00     R  	clr _main_2[0]
  46  000D  1F00     R  	clr _main_2[1]
  46  000E              _L99:
  49  000E              #line 49 "C:\HT-3000\UC_F5660\UC_F5660_main.c"
  49  000E              	fcall _displayOFF
  51  0015              #line 51 "C:\HT-3000\UC_F5660\UC_F5660_main.c"
  51  0015  0700     R  	mov a,_main_2[0]
  51  0016  0080     E  	mov _builtin_holtek_udivmodhi4_2[0],a
  51  0017  0700     R  	mov a,_main_2[1]
  51  0018  0080     E  	mov _builtin_holtek_udivmodhi4_2[1],a
  51  0019  0F10        	mov a,16
  51  001A  0080     E  	mov _builtin_holtek_udivmodhi4_2[2],a
  51  001B  0F27        	mov a,39
  51  001C  0080     E  	mov _builtin_holtek_udivmodhi4_2[3],a
  51  001D              	fcall _builtin_holtek_divmodhi4
  51  0024  0700     E  	mov a,_builtin_holtek_udivmodhi4_2[0]
  51  0025  0080     R  	mov _Display_Number_2[0],a
  51  0026  0700     E  	mov a,_builtin_holtek_udivmodhi4_2[1]
  51  0027  0080     R  	mov _Display_Number_2[1],a
  51  0028              	fcall _Display_Number
  51  002F  0700     E  	mov a,ra
  51  0030  0080     R  	mov _display_Buffer[0],a
  51  0031  0700     E  	mov a,rb
  51  0032  0080     R  	mov _display_Buffer[1],a
  52  0033              #line 52 "C:\HT-3000\UC_F5660\UC_F5660_main.c"
  52  0033  0700     R  	mov a,_main_2[0]
  52  0034  0080     E  	mov _builtin_holtek_udivmodhi4_2[0],a
  52  0035  0700     R  	mov a,_main_2[1]
  52  0036  0080     E  	mov _builtin_holtek_udivmodhi4_2[1],a
  52  0037  0FE8        	mov a,232
  52  0038  0080     E  	mov _builtin_holtek_udivmodhi4_2[2],a
  52  0039  0F03        	mov a,3
  52  003A  0080     E  	mov _builtin_holtek_udivmodhi4_2[3],a
  52  003B              	fcall _builtin_holtek_divmodhi4
  52  0042  0700     E  	mov a,_builtin_holtek_udivmodhi4_2[0]
"File: UC_F5660_main.c  Assembler  Version HGASM0202      Page 46

  52  0043  0080     E  	mov rb,a
  52  0044  0700     E  	mov a,_builtin_holtek_udivmodhi4_2[1]
  52  0045  0080     E  	mov rc,a
  53  0046              #line 53 "C:\HT-3000\UC_F5660\UC_F5660_main.c"
  53  0046  0700     E  	mov a,rb
  53  0047  0080     E  	mov _builtin_holtek_udivmodhi4_2[0],a
  53  0048  0700     E  	mov a,rc
  53  0049  0080     E  	mov _builtin_holtek_udivmodhi4_2[1],a
  53  004A  0F0A        	mov a,10
  53  004B  0080     E  	mov _builtin_holtek_udivmodhi4_2[2],a
  53  004C  0F00        	mov a,0
  53  004D  0080     E  	mov _builtin_holtek_udivmodhi4_2[3],a
  53  004E              	fcall _builtin_holtek_divmodhi4
  53  0055  0700     E  	mov a,_builtin_holtek_udivmodhi4_2[4]
  53  0056  0080     R  	mov _Display_Number_2[0],a
  53  0057  0700     E  	mov a,_builtin_holtek_udivmodhi4_2[5]
  53  0058  0080     R  	mov _Display_Number_2[1],a
  53  0059              	fcall _Display_Number
  53  0060  0700     E  	mov a,ra
  53  0061  0080     R  	mov _display_Buffer[2],a
  53  0062  0700     E  	mov a,rb
  53  0063  0080     R  	mov _display_Buffer[3],a
  54  0064              #line 54 "C:\HT-3000\UC_F5660\UC_F5660_main.c"
  54  0064  0700     R  	mov a,_main_2[0]
  54  0065  0080     E  	mov _builtin_holtek_udivmodhi4_2[0],a
  54  0066  0700     R  	mov a,_main_2[1]
  54  0067  0080     E  	mov _builtin_holtek_udivmodhi4_2[1],a
  54  0068  0F64        	mov a,100
  54  0069  0080     E  	mov _builtin_holtek_udivmodhi4_2[2],a
  54  006A  0F00        	mov a,0
  54  006B  0080     E  	mov _builtin_holtek_udivmodhi4_2[3],a
  54  006C              	fcall _builtin_holtek_divmodhi4
  54  0073  0700     E  	mov a,_builtin_holtek_udivmodhi4_2[0]
  54  0074  0080     E  	mov rb,a
  54  0075  0700     E  	mov a,_builtin_holtek_udivmodhi4_2[1]
  54  0076  0080     E  	mov rc,a
  55  0077              #line 55 "C:\HT-3000\UC_F5660\UC_F5660_main.c"
  55  0077  0700     E  	mov a,rb
  55  0078  0080     E  	mov _builtin_holtek_udivmodhi4_2[0],a
  55  0079  0700     E  	mov a,rc
  55  007A  0080     E  	mov _builtin_holtek_udivmodhi4_2[1],a
  55  007B  0F0A        	mov a,10
  55  007C  0080     E  	mov _builtin_holtek_udivmodhi4_2[2],a
  55  007D  0F00        	mov a,0
  55  007E  0080     E  	mov _builtin_holtek_udivmodhi4_2[3],a
  55  007F              	fcall _builtin_holtek_divmodhi4
  55  0086  0700     E  	mov a,_builtin_holtek_udivmodhi4_2[4]
  55  0087  0080     R  	mov _Display_Number_2[0],a
  55  0088  0700     E  	mov a,_builtin_holtek_udivmodhi4_2[5]
  55  0089  0080     R  	mov _Display_Number_2[1],a
  55  008A              	fcall _Display_Number
  55  0091  0700     E  	mov a,ra
  55  0092  0080     R  	mov _display_Buffer[4],a
  55  0093  0700     E  	mov a,rb
  55  0094  0080     R  	mov _display_Buffer[5],a
  56  0095              #line 56 "C:\HT-3000\UC_F5660\UC_F5660_main.c"
  56  0095  0700     R  	mov a,_main_2[0]
  56  0096  0080     E  	mov _builtin_holtek_udivmodhi4_2[0],a
  56  0097  0700     R  	mov a,_main_2[1]
  56  0098  0080     E  	mov _builtin_holtek_udivmodhi4_2[1],a
"File: UC_F5660_main.c  Assembler  Version HGASM0202      Page 47

  56  0099  0F0A        	mov a,10
  56  009A  0080     E  	mov _builtin_holtek_udivmodhi4_2[2],a
  56  009B  0F00        	mov a,0
  56  009C  0080     E  	mov _builtin_holtek_udivmodhi4_2[3],a
  56  009D              	fcall _builtin_holtek_divmodhi4
  56  00A4  0700     E  	mov a,_builtin_holtek_udivmodhi4_2[0]
  56  00A5  0080     E  	mov rb,a
  56  00A6  0700     E  	mov a,_builtin_holtek_udivmodhi4_2[1]
  56  00A7  0080     E  	mov rc,a
  57  00A8              #line 57 "C:\HT-3000\UC_F5660\UC_F5660_main.c"
  57  00A8  0700     E  	mov a,rb
  57  00A9  0080     E  	mov _builtin_holtek_udivmodhi4_2[0],a
  57  00AA  0700     E  	mov a,rc
  57  00AB  0080     E  	mov _builtin_holtek_udivmodhi4_2[1],a
  57  00AC  0F0A        	mov a,10
  57  00AD  0080     E  	mov _builtin_holtek_udivmodhi4_2[2],a
  57  00AE  0F00        	mov a,0
  57  00AF  0080     E  	mov _builtin_holtek_udivmodhi4_2[3],a
  57  00B0              	fcall _builtin_holtek_divmodhi4
  57  00B7  0700     E  	mov a,_builtin_holtek_udivmodhi4_2[4]
  57  00B8  0080     R  	mov _Display_Number_2[0],a
  57  00B9  0700     E  	mov a,_builtin_holtek_udivmodhi4_2[5]
  57  00BA  0080     R  	mov _Display_Number_2[1],a
  57  00BB              	fcall _Display_Number
  57  00C2  0700     E  	mov a,ra
  57  00C3  0080     R  	mov _display_Buffer[6],a
  57  00C4  0700     E  	mov a,rb
  57  00C5  0080     R  	mov _display_Buffer[7],a
  59  00C6              #line 59 "C:\HT-3000\UC_F5660\UC_F5660_main.c"
  59  00C6  0700     R  	mov a,_main_2[0]
  59  00C7  0080     E  	mov _builtin_holtek_udivmodhi4_2[0],a
  59  00C8  0700     R  	mov a,_main_2[1]
  59  00C9  0080     E  	mov _builtin_holtek_udivmodhi4_2[1],a
  59  00CA  0F0A        	mov a,10
  59  00CB  0080     E  	mov _builtin_holtek_udivmodhi4_2[2],a
  59  00CC  0F00        	mov a,0
  59  00CD  0080     E  	mov _builtin_holtek_udivmodhi4_2[3],a
  59  00CE              	fcall _builtin_holtek_divmodhi4
  59  00D5  0700     E  	mov a,_builtin_holtek_udivmodhi4_2[4]
  59  00D6  0080     R  	mov _Display_Number_2[0],a
  59  00D7  0700     E  	mov a,_builtin_holtek_udivmodhi4_2[5]
  59  00D8  0080     R  	mov _Display_Number_2[1],a
  59  00D9              	fcall _Display_Number
  59  00E0  0700     E  	mov a,ra
  59  00E1  0080     R  	mov _display_Buffer[8],a
  59  00E2  0700     E  	mov a,rb
  59  00E3  0080     R  	mov _display_Buffer[9],a
  60  00E4              #line 60 "C:\HT-3000\UC_F5660\UC_F5660_main.c"
  60  00E4  1480     R  	inc _main_2[0]
  60  00E5  3D0A        	sz z
  60  00E6  1480     R  	inc _main_2[1]
  62  00E7              #line 62 "C:\HT-3000\UC_F5660\UC_F5660_main.c"
  62  00E7              	fcall _show
  63  00EE              #line 63 "C:\HT-3000\UC_F5660\UC_F5660_main.c"
  63  00EE              	fcall _displayON
  64  00F5              #line 64 "C:\HT-3000\UC_F5660\UC_F5660_main.c"
  64  00F5              ;# 64 "C:\HT-3000\UC_F5660\UC_F5660_main.c" 1
  64  00F5              	IF 50000>263690
  64  00F5              ;# 64 "C:\HT-3000\UC_F5660\UC_F5660_main.c" 1
  64  00F5              	ERRMESSAGE 'the value 50000of the argument exceeds the maxinum 263690'
"File: UC_F5660_main.c  Assembler  Version HGASM0202      Page 48

  64  00F5              	ENDIF
  64  00F5              ;# 64 "C:\HT-3000\UC_F5660\UC_F5660_main.c" 1
  64  00F5              	IF 50000<0
  64  00F5              ;# 64 "C:\HT-3000\UC_F5660\UC_F5660_main.c" 1
  64  00F5              	ERRMESSAGE 'the value 50000 of the argument exceeds the mininum 0'
  64  00F5              	ENDIF
  64  00F5              ;# 64 "C:\HT-3000\UC_F5660\UC_F5660_main.c" 1
  64  00F5              	IF 50000==0
  64  00F5              ;# 64 "C:\HT-3000\UC_F5660\UC_F5660_main.c" 1
  64  00F5              	JMP $
  64  00F5              	ENDIF
  64  00F5              ;# 64 "C:\HT-3000\UC_F5660\UC_F5660_main.c" 1
  64  00F5              	IF (50000>=1) AND (50000<( 4 + __PBP__ * 2))
  64  00F5              ;# 64 "C:\HT-3000\UC_F5660\UC_F5660_main.c" 1
  64  00F5              	NOP
  64  00F5              	ENDIF
  64  00F5              ;# 64 "C:\HT-3000\UC_F5660\UC_F5660_main.c" 1
  64  00F5              	IF (50000>=2) AND (50000<( 4 + __PBP__ * 2))
  64  00F5              ;# 64 "C:\HT-3000\UC_F5660\UC_F5660_main.c" 1
  64  00F5              	NOP
  64  00F5              	ENDIF
  64  00F5              ;# 64 "C:\HT-3000\UC_F5660\UC_F5660_main.c" 1
  64  00F5              	IF (50000>=3) AND (50000<( 4 + __PBP__ * 2))
  64  00F5              ;# 64 "C:\HT-3000\UC_F5660\UC_F5660_main.c" 1
  64  00F5              	NOP
  64  00F5              	ENDIF
  64  00F5              ;# 64 "C:\HT-3000\UC_F5660\UC_F5660_main.c" 1
  64  00F5              	IF (50000>=4) AND (50000<( 4 + __PBP__ * 2)) AND ( __PBP__ > 0 )
  64  00F5              ;# 64 "C:\HT-3000\UC_F5660\UC_F5660_main.c" 1
  64  00F5              	NOP
  64  00F5              	ENDIF
  64  00F5              ;# 64 "C:\HT-3000\UC_F5660\UC_F5660_main.c" 1
  64  00F5              	IF (50000>=5) AND (50000<( 4 + __PBP__ * 2)) AND ( __PBP__ > 0 )
  64  00F5              ;# 64 "C:\HT-3000\UC_F5660\UC_F5660_main.c" 1
  64  00F5              	NOP
  64  00F5              	ENDIF
  64  00F5              ;# 64 "C:\HT-3000\UC_F5660\UC_F5660_main.c" 1
  64  00F5              	IF (50000>=6) AND (50000<( 4 + __PBP__ * 2))  AND ( __PBP__ > 1 )
  64  00F5              ;# 64 "C:\HT-3000\UC_F5660\UC_F5660_main.c" 1
  64  00F5              	NOP
  64  00F5              	ENDIF
  64  00F5              ;# 64 "C:\HT-3000\UC_F5660\UC_F5660_main.c" 1
  64  00F5              	IF (50000>=7) AND (50000<( 4 + __PBP__ * 2))  AND ( __PBP__ > 1 )
  64  00F5              ;# 64 "C:\HT-3000\UC_F5660\UC_F5660_main.c" 1
  64  00F5              	NOP
  64  00F5              	ENDIF
  64  00F5              ;# 64 "C:\HT-3000\UC_F5660\UC_F5660_main.c" 1
  64  00F5              	IF (50000>=8) AND (50000<( 4 + __PBP__ * 2))  AND ( __PBP__ > 2 )
  64  00F5              ;# 64 "C:\HT-3000\UC_F5660\UC_F5660_main.c" 1
  64  00F5              	NOP
  64  00F5              	ENDIF
  64  00F5              ;# 64 "C:\HT-3000\UC_F5660\UC_F5660_main.c" 1
  64  00F5              	IF (50000==9)  AND ( __PBP__ > 2 )
  64  00F5              ;# 64 "C:\HT-3000\UC_F5660\UC_F5660_main.c" 1
  64  00F5              	NOP
  64  00F5              	ENDIF
  64  00F5              ;# 64 "C:\HT-3000\UC_F5660\UC_F5660_main.c" 1
  64  00F5              	IF (50000< ( 8 + __PBP__ * 2)) AND (50000>( 3 + __PBP__ * 2))
  64  00F5              ;# 64 "C:\HT-3000\UC_F5660\UC_F5660_main.c" 1
  64  00F5              	fcall __DELAY3 + ( 7 + __PBP__ * 2) -50000
"File: UC_F5660_main.c  Assembler  Version HGASM0202      Page 49

  64  00F5              	ENDIF
  64  00F5              ;# 64 "C:\HT-3000\UC_F5660\UC_F5660_main.c" 1
  64  00F5              	IF (50000< ( 0404h + __PBP__ * 2)) AND (50000>( 7 + __PBP__ * 2))
  64  00F5              ;# 64 "C:\HT-3000\UC_F5660\UC_F5660_main.c" 1
  64  00F5              	MOV A,(50000-( 4 + __PBP__ * 2))/4
  64  00F5              ;# 64 "C:\HT-3000\UC_F5660\UC_F5660_main.c" 1
  64  00F5              	fcall __DELAYX3 + 3 -((50000-( 4 + __PBP__ * 2)) MOD 4) 
  64  00F5              	ENDIF
  64  00F5              ;# 64 "C:\HT-3000\UC_F5660\UC_F5660_main.c" 1
  64  00F5              	IF (50000< ( 040bh + __PBP__ * 2)) AND (50000> ( 0403h + __PBP__ * 2))
  64  00F5              ;# 64 "C:\HT-3000\UC_F5660\UC_F5660_main.c" 1
  64  00F5              	MOV A,0 
  64  00F5              ;# 64 "C:\HT-3000\UC_F5660\UC_F5660_main.c" 1
  64  00F5              	fcall __DELAYX6 + ( 040ah + __PBP__ * 2) -50000
  64  00F5              	ENDIF
  64  00F5              ;# 64 "C:\HT-3000\UC_F5660\UC_F5660_main.c" 1
  64  00F5              	IF (50000 >= ( 040bh + __PBP__ * 2)) AND ((((50000-( 9 + __PBP__ * 2))%0402h)/4+1)>256)
  64  00F5              ;# 64 "C:\HT-3000\UC_F5660\UC_F5660_main.c" 1
  64  00F5              	MOV A,(50000-( 9 + __PBP__ * 2))/0402h
  64  00F5              ;# 64 "C:\HT-3000\UC_F5660\UC_F5660_main.c" 1
  64  00F5              	MOV _builtin_holtek_delay_2,A
  64  00F5              ;# 64 "C:\HT-3000\UC_F5660\UC_F5660_main.c" 1
  64  00F5              	MOV A,0
  64  00F5              ;# 64 "C:\HT-3000\UC_F5660\UC_F5660_main.c" 1
  64  00F5              	fcall __DELAYY5 +5- (((50000-( 9 + __PBP__ * 2))%0402h)%6) 
  64  00F5              	ENDIF
  64  00F5              ;# 64 "C:\HT-3000\UC_F5660\UC_F5660_main.c" 1
  64  00F5              	IF (50000 >= ( 040bh + __PBP__ * 2)) AND ((((50000-( 9 + __PBP__ * 2))%0402h)/4+1)<=256)
  64  00F5              ;# 64 "C:\HT-3000\UC_F5660\UC_F5660_main.c" 1
  64  00F5  0F30        	MOV A,(50000-( 9 + __PBP__ * 2))/0402h
  64  00F6              ;# 64 "C:\HT-3000\UC_F5660\UC_F5660_main.c" 1
  64  00F6  0080     E  	MOV _builtin_holtek_delay_2,A
  64  00F7              ;# 64 "C:\HT-3000\UC_F5660\UC_F5660_main.c" 1
  64  00F7  0FBA        	MOV A,((50000-( 9 + __PBP__ * 2))%0402h)/4+1
  64  00F8              ;# 64 "C:\HT-3000\UC_F5660\UC_F5660_main.c" 1
  64  00F8              	fcall __DELAYY3 +3-(((50000-( 9 + __PBP__ * 2))%0402h)%4) 
  64  00FF              	ENDIF
  64  00FF  2800     R  	jmp _L99
  64  0100  2800     R  	jmp $
  64  0101              _main endp
  64  0101              
  64  0101              @dummy endp
  64  0101              
  64  0101              #line 64 "C:\HT-3000\UC_F5660\UC_F5660_main.c"
  64  0101              #pragma debug scope 1 1
  64  0101              public _UC_Watchdog
  64  0101              #pragma debug scope 17 1
 474  0101              #line 474 "C:\HT-3000\UC_F5660\UC_F5660_main.c"
 474  0000              _UC_Watchdog .section 'code'
 474  0000              _UC_Watchdog proc
 474  0000              public _UC_Watchdog_2
 474  0000  0002[           local _UC_Watchdog_2 db 2 dup(?)	; 2,0
            00
            ]
 474  0002              #pragma debug variable 12 17 _UC_Watchdog_2+0 "Watchdog"
 476  0002              #line 476 "C:\HT-3000\UC_F5660\UC_F5660_main.c"
 476  0000  0700     R  	mov a,_UC_Watchdog_2[0]
 476  0001  0C01        	xor a,1
 476  0002  0500     R  	or a,_UC_Watchdog_2[1]
 476  0003  390A        	snz z
"File: UC_F5660_main.c  Assembler  Version HGASM0202      Page 50

 476  0004  2800     R  	jmp _L101
 477  0005              #line 477 "C:\HT-3000\UC_F5660\UC_F5660_main.c"
 477  0005  37AA        	clr [42].7
 478  0006              #line 478 "C:\HT-3000\UC_F5660\UC_F5660_main.c"
 478  0006  332A        	set [42].6
 479  0007              #line 479 "C:\HT-3000\UC_F5660\UC_F5660_main.c"
 479  0007  36AA        	clr [42].5
 480  0008              #line 480 "C:\HT-3000\UC_F5660\UC_F5660_main.c"
 480  0008  322A        	set [42].4
 481  0009              #line 481 "C:\HT-3000\UC_F5660\UC_F5660_main.c"
 481  0009  35AA        	clr [42].3
 484  000A              #line 484 "C:\HT-3000\UC_F5660\UC_F5660_main.c"
 484  000A  352A        	clr [42].2
 485  000B              #line 485 "C:\HT-3000\UC_F5660\UC_F5660_main.c"
 485  000B  34AA        	clr [42].1
 486  000C              #line 486 "C:\HT-3000\UC_F5660\UC_F5660_main.c"
 486  000C  342A        	clr [42].0
 487  000D              #line 487 "C:\HT-3000\UC_F5660\UC_F5660_main.c"
 487  000D  2800     R  	jmp _L100
 487  000E              _L101:
 491  000E              #line 491 "C:\HT-3000\UC_F5660\UC_F5660_main.c"
 491  000E  0FA8        	mov a,168
 491  000F  00AA        	mov [42],a
 491  0010              _L100:
 491  0010  0003        	ret
 491  0011              _UC_Watchdog endp
 491  0011              #line 491 "C:\HT-3000\UC_F5660\UC_F5660_main.c"
 491  0011              #pragma debug scope 1 1
 491  0000              @crom	.section 'crom'
  24  0000              #line 24 "C:\HT-3000\UC_F5660\UC_F5660_main.c"
  24  0000              @crom	.section	'crom'
  24  0000              _numbertable:
  24  0000              #pragma debug array 42 12 10 1
  24  0000              #pragma debug array 42 12 10 1
  24  0000              #pragma debug variable 42 1 _numbertable "numbertable"
  24  0000  3F00        	dc 16128
  24  0001  0600        	dc 1536
  24  0002  5B00        	dc 23296
  24  0003  4F00        	dc 20224
  24  0004  6600        	dc 26112
  24  0005  6D00        	dc 27904
  24  0006  7C00        	dc 31744
  24  0007  0700        	dc 1792
  24  0008  7F00        	dc 32512
  24  0009  6700        	dc 26368
  24  000A              public _CheckAddressCnt
  24  0000              @HCCINIT	.section 'data'
  23  0000              #line 23 "C:\HT-3000\UC_F5660\UC_F5660_main.c"
  23  0000              @HCCINIT_CheckAddressCnt .section 'data'
  23  0000              _CheckAddressCnt label byte
  23  0000              #pragma debug variable 8 1 _CheckAddressCnt "CheckAddressCnt"
  23  0000              	db 5
  23  0000              @ROMDATA_BASE .section inpage 'code'
  23  0000              	db 5
  23  0001              @HCCINIT_CheckAddressCnt .section 'data'
  23  0000              @HCCINIT0_display_Buffer .section 'data'
  23  0000  0010[       _display_Buffer	db 16 dup(0)
            00
            ]
  23  0010              #pragma debug array 43 12 8 1
"File: UC_F5660_main.c  Assembler  Version HGASM0202      Page 51

  23  0010              #pragma debug array 43 12 8 1
  23  0010              #pragma debug variable 43 1 _display_Buffer "display_Buffer"
  23  0010              
  23  0000              @HCCINIT .section 'data'
  23  0000              #pragma debug struct_end
  23  0000              #pragma debug struct_end
  23  0000              #pragma debug union_end
  23  0000              #pragma debug union_end
  23  0000              #pragma debug variable 45 1 ___pcpu "__pcpu" 1
  23  0000              #pragma debug struct_end
  23  0000              #pragma debug struct_end
  23  0000              #pragma debug union_end
  23  0000              #pragma debug union_end
  23  0000              #pragma debug variable 47 1 ___pcc "__pcc" 1
  23  0000              #pragma debug struct_end
  23  0000              #pragma debug struct_end
  23  0000              #pragma debug union_end
  23  0000              #pragma debug union_end
  23  0000              #pragma debug variable 49 1 ___tbc "__tbc" 1
  23  0000              #pragma debug struct_end
  23  0000              #pragma debug struct_end
  23  0000              #pragma debug union_end
  23  0000              #pragma debug union_end
  23  0000              #pragma debug variable 51 1 ___wdtc "__wdtc" 1
  38  0000              #line 38 "C:\HT-3000\UC_F5660\UC_F5660_main.c"
  38  0000              @code .section at 0 'code'
  38  0000  1F0B        	clr bp
  38  0001  2800     R  	jmp _main_startup1
  38  0002              
  38  0002              extern _i2c_start:near
  38  0002              extern _i2c_write:near
  38  0002              extern _i2c_read_ACK:near
  38  0002              extern _i2c_stop:near
  38  0002              extern _i2c_init:near
  38  0002              extern _builtin_holtek_divmodhi4:near
  38  0002              extern _builtin_holtek_udivmodhi4_2:byte
  38  0002              extern _builtin_holtek_udivmodhi4:near
  38  0002              
  38  0002              ; 
  38  0002              ; Generated by holtek-gcc v3.20, Sun Oct 25 16:10:56 2020
  38  0002              ; Rebuild 610
  38  0002              ; end of file


        0 Errors, 0